	.file	"main.cpp"
	.text
	.section	.text._ZNSt13random_deviceD2Ev,"axG",@progbits,_ZNSt13random_deviceD5Ev,comdat
	.align 2
	.p2align 4
	.weak	_ZNSt13random_deviceD2Ev
	.type	_ZNSt13random_deviceD2Ev, @function
_ZNSt13random_deviceD2Ev:
.LFB2845:
	.cfi_startproc
	.cfi_personality 0x9b,DW.ref.__gxx_personality_v0
	.cfi_lsda 0x1b,.LLSDA2845
	subq	$8, %rsp
	.cfi_def_cfa_offset 16
	call	_ZNSt13random_device7_M_finiEv@PLT
	addq	$8, %rsp
	.cfi_def_cfa_offset 8
	ret
	.cfi_endproc
.LFE2845:
	.globl	__gxx_personality_v0
	.section	.gcc_except_table._ZNSt13random_deviceD2Ev,"aG",@progbits,_ZNSt13random_deviceD5Ev,comdat
.LLSDA2845:
	.byte	0xff
	.byte	0xff
	.byte	0x1
	.uleb128 .LLSDACSE2845-.LLSDACSB2845
.LLSDACSB2845:
.LLSDACSE2845:
	.section	.text._ZNSt13random_deviceD2Ev,"axG",@progbits,_ZNSt13random_deviceD5Ev,comdat
	.size	_ZNSt13random_deviceD2Ev, .-_ZNSt13random_deviceD2Ev
	.weak	_ZNSt13random_deviceD1Ev
	.set	_ZNSt13random_deviceD1Ev,_ZNSt13random_deviceD2Ev
	.section	.text._ZNKSt6vectorIdSaIdEEixEm.isra.0,"axG",@progbits,_ZN7TMatrix20NoVectorizedMultiplyERKS_,comdat
	.align 2
	.p2align 4
	.type	_ZNKSt6vectorIdSaIdEEixEm.isra.0, @function
_ZNKSt6vectorIdSaIdEEixEm.isra.0:
.LFB11175:
	.cfi_startproc
	leaq	(%rdi,%rsi,8), %rax
	ret
	.cfi_endproc
.LFE11175:
	.size	_ZNKSt6vectorIdSaIdEEixEm.isra.0, .-_ZNKSt6vectorIdSaIdEEixEm.isra.0
	.section	.text._ZNKSt6vectorIS_IdSaIdEESaIS1_EEixEm.isra.0,"axG",@progbits,_ZN7TMatrix20NoVectorizedMultiplyERKS_,comdat
	.align 2
	.p2align 4
	.type	_ZNKSt6vectorIS_IdSaIdEESaIS1_EEixEm.isra.0, @function
_ZNKSt6vectorIS_IdSaIdEESaIS1_EEixEm.isra.0:
.LFB11176:
	.cfi_startproc
	leaq	(%rsi,%rsi,2), %rax
	leaq	(%rdi,%rax,8), %rax
	ret
	.cfi_endproc
.LFE11176:
	.size	_ZNKSt6vectorIS_IdSaIdEESaIS1_EEixEm.isra.0, .-_ZNKSt6vectorIS_IdSaIdEESaIS1_EEixEm.isra.0
	.section	.text._ZNSt6vectorIdSaIdEEixEm.isra.0,"axG",@progbits,_ZN7TMatrix20NoVectorizedMultiplyERKS_,comdat
	.align 2
	.p2align 4
	.type	_ZNSt6vectorIdSaIdEEixEm.isra.0, @function
_ZNSt6vectorIdSaIdEEixEm.isra.0:
.LFB11177:
	.cfi_startproc
	leaq	(%rdi,%rsi,8), %rax
	ret
	.cfi_endproc
.LFE11177:
	.size	_ZNSt6vectorIdSaIdEEixEm.isra.0, .-_ZNSt6vectorIdSaIdEEixEm.isra.0
	.section	.text._ZNSt6vectorIS_IdSaIdEESaIS1_EEixEm.isra.0,"axG",@progbits,_ZN7TMatrix20NoVectorizedMultiplyERKS_,comdat
	.align 2
	.p2align 4
	.type	_ZNSt6vectorIS_IdSaIdEESaIS1_EEixEm.isra.0, @function
_ZNSt6vectorIS_IdSaIdEESaIS1_EEixEm.isra.0:
.LFB11178:
	.cfi_startproc
	leaq	(%rsi,%rsi,2), %rax
	leaq	(%rdi,%rax,8), %rax
	ret
	.cfi_endproc
.LFE11178:
	.size	_ZNSt6vectorIS_IdSaIdEESaIS1_EEixEm.isra.0, .-_ZNSt6vectorIS_IdSaIdEESaIS1_EEixEm.isra.0
	.section	.text._ZNKSt6vectorIS_IS_IdSaIdEESaIS1_EESaIS3_EEixEm.isra.0,"axG",@progbits,_ZN7TMatrix20NoVectorizedMultiplyERKS_,comdat
	.align 2
	.p2align 4
	.type	_ZNKSt6vectorIS_IS_IdSaIdEESaIS1_EESaIS3_EEixEm.isra.0, @function
_ZNKSt6vectorIS_IS_IdSaIdEESaIS1_EESaIS3_EEixEm.isra.0:
.LFB11179:
	.cfi_startproc
	leaq	(%rsi,%rsi,2), %rax
	leaq	(%rdi,%rax,8), %rax
	ret
	.cfi_endproc
.LFE11179:
	.size	_ZNKSt6vectorIS_IS_IdSaIdEESaIS1_EESaIS3_EEixEm.isra.0, .-_ZNKSt6vectorIS_IS_IdSaIdEESaIS1_EESaIS3_EEixEm.isra.0
	.section	.text._ZNKSt6vectorIS_IS_IS_IdSaIdEESaIS1_EESaIS3_EESaIS5_EEixEm.isra.0,"axG",@progbits,_ZN7TMatrix20NoVectorizedMultiplyERKS_,comdat
	.align 2
	.p2align 4
	.type	_ZNKSt6vectorIS_IS_IS_IdSaIdEESaIS1_EESaIS3_EESaIS5_EEixEm.isra.0, @function
_ZNKSt6vectorIS_IS_IS_IdSaIdEESaIS1_EESaIS3_EESaIS5_EEixEm.isra.0:
.LFB11180:
	.cfi_startproc
	leaq	(%rsi,%rsi,2), %rax
	leaq	(%rdi,%rax,8), %rax
	ret
	.cfi_endproc
.LFE11180:
	.size	_ZNKSt6vectorIS_IS_IS_IdSaIdEESaIS1_EESaIS3_EESaIS5_EEixEm.isra.0, .-_ZNKSt6vectorIS_IS_IS_IdSaIdEESaIS1_EESaIS3_EESaIS5_EEixEm.isra.0
	.section	.text._ZNSt6vectorIS_IS_IdSaIdEESaIS1_EESaIS3_EEixEm.isra.0,"axG",@progbits,_ZN7TMatrix20NoVectorizedMultiplyERKS_,comdat
	.align 2
	.p2align 4
	.type	_ZNSt6vectorIS_IS_IdSaIdEESaIS1_EESaIS3_EEixEm.isra.0, @function
_ZNSt6vectorIS_IS_IdSaIdEESaIS1_EESaIS3_EEixEm.isra.0:
.LFB11181:
	.cfi_startproc
	leaq	(%rsi,%rsi,2), %rax
	leaq	(%rdi,%rax,8), %rax
	ret
	.cfi_endproc
.LFE11181:
	.size	_ZNSt6vectorIS_IS_IdSaIdEESaIS1_EESaIS3_EEixEm.isra.0, .-_ZNSt6vectorIS_IS_IdSaIdEESaIS1_EESaIS3_EEixEm.isra.0
	.section	.text._ZNSt6vectorIS_IS_IS_IdSaIdEESaIS1_EESaIS3_EESaIS5_EEixEm.isra.0,"axG",@progbits,_ZN7TMatrix20NoVectorizedMultiplyERKS_,comdat
	.align 2
	.p2align 4
	.type	_ZNSt6vectorIS_IS_IS_IdSaIdEESaIS1_EESaIS3_EESaIS5_EEixEm.isra.0, @function
_ZNSt6vectorIS_IS_IS_IdSaIdEESaIS1_EESaIS3_EESaIS5_EEixEm.isra.0:
.LFB11182:
	.cfi_startproc
	leaq	(%rsi,%rsi,2), %rax
	leaq	(%rdi,%rax,8), %rax
	ret
	.cfi_endproc
.LFE11182:
	.size	_ZNSt6vectorIS_IS_IS_IdSaIdEESaIS1_EESaIS3_EESaIS5_EEixEm.isra.0, .-_ZNSt6vectorIS_IS_IS_IdSaIdEESaIS1_EESaIS3_EESaIS5_EEixEm.isra.0
	.section	.text._ZNK9__gnu_cxx17__normal_iteratorIPSt6vectorIdSaIdEES1_IS3_SaIS3_EEEdeEv.isra.0,"axG",@progbits,_ZN7TMatrix20NoVectorizedMultiplyERKS_,comdat
	.align 2
	.p2align 4
	.type	_ZNK9__gnu_cxx17__normal_iteratorIPSt6vectorIdSaIdEES1_IS3_SaIS3_EEEdeEv.isra.0, @function
_ZNK9__gnu_cxx17__normal_iteratorIPSt6vectorIdSaIdEES1_IS3_SaIS3_EEEdeEv.isra.0:
.LFB11183:
	.cfi_startproc
	movq	%rdi, %rax
	ret
	.cfi_endproc
.LFE11183:
	.size	_ZNK9__gnu_cxx17__normal_iteratorIPSt6vectorIdSaIdEES1_IS3_SaIS3_EEEdeEv.isra.0, .-_ZNK9__gnu_cxx17__normal_iteratorIPSt6vectorIdSaIdEES1_IS3_SaIS3_EEEdeEv.isra.0
	.section	.text._ZN9__gnu_cxx17__normal_iteratorIPSt6vectorIdSaIdEES1_IS3_SaIS3_EEEppEv.isra.0,"axG",@progbits,_ZN7TMatrix20NoVectorizedMultiplyERKS_,comdat
	.align 2
	.p2align 4
	.type	_ZN9__gnu_cxx17__normal_iteratorIPSt6vectorIdSaIdEES1_IS3_SaIS3_EEEppEv.isra.0, @function
_ZN9__gnu_cxx17__normal_iteratorIPSt6vectorIdSaIdEES1_IS3_SaIS3_EEEppEv.isra.0:
.LFB11184:
	.cfi_startproc
	addq	$24, (%rdi)
	ret
	.cfi_endproc
.LFE11184:
	.size	_ZN9__gnu_cxx17__normal_iteratorIPSt6vectorIdSaIdEES1_IS3_SaIS3_EEEppEv.isra.0, .-_ZN9__gnu_cxx17__normal_iteratorIPSt6vectorIdSaIdEES1_IS3_SaIS3_EEEppEv.isra.0
	.section	.text._ZNSt13random_deviceC2Ev,"axG",@progbits,_ZNSt13random_deviceC5Ev,comdat
	.align 2
	.p2align 4
	.weak	_ZNSt13random_deviceC2Ev
	.type	_ZNSt13random_deviceC2Ev, @function
_ZNSt13random_deviceC2Ev:
.LFB2839:
	.cfi_startproc
	.cfi_personality 0x9b,DW.ref.__gxx_personality_v0
	.cfi_lsda 0x1b,.LLSDA2839
	pushq	%rbp
	.cfi_def_cfa_offset 16
	.cfi_offset 6, -16
	pushq	%rbx
	.cfi_def_cfa_offset 24
	.cfi_offset 3, -24
	subq	$56, %rsp
	.cfi_def_cfa_offset 80
	movq	%fs:40, %rax
	movq	%rax, 40(%rsp)
	xorl	%eax, %eax
	movq	%rsp, %rbp
	leaq	16(%rsp), %rbx
	movb	$0, 23(%rsp)
	movq	%rbp, %rsi
	movq	%rbx, (%rsp)
	movl	$1634100580, 16(%rsp)
	movq	$7, 8(%rsp)
	movl	$1953264993, 19(%rsp)
.LEHB0:
	call	_ZNSt13random_device7_M_initERKNSt7__cxx1112basic_stringIcSt11char_traitsIcESaIcEEE@PLT
.LEHE0:
	movq	(%rsp), %rdi
	cmpq	%rbx, %rdi
	je	.L14
	movq	16(%rsp), %rax
	leaq	1(%rax), %rsi
	call	_ZdlPvm@PLT
.L14:
	movq	40(%rsp), %rax
	subq	%fs:40, %rax
	jne	.L21
	addq	$56, %rsp
	.cfi_remember_state
	.cfi_def_cfa_offset 24
	popq	%rbx
	.cfi_def_cfa_offset 16
	popq	%rbp
	.cfi_def_cfa_offset 8
	ret
.L21:
	.cfi_restore_state
	call	__stack_chk_fail@PLT
.L18:
	movq	%rax, %rbx
.L16:
	movq	%rbp, %rdi
	vzeroupper
	call	_ZNSt7__cxx1112basic_stringIcSt11char_traitsIcESaIcEE10_M_disposeEv@PLT
	movq	%rbx, %rdi
.LEHB1:
	call	_Unwind_Resume@PLT
.LEHE1:
	.cfi_endproc
.LFE2839:
	.section	.gcc_except_table._ZNSt13random_deviceC2Ev,"aG",@progbits,_ZNSt13random_deviceC5Ev,comdat
.LLSDA2839:
	.byte	0xff
	.byte	0xff
	.byte	0x1
	.uleb128 .LLSDACSE2839-.LLSDACSB2839
.LLSDACSB2839:
	.uleb128 .LEHB0-.LFB2839
	.uleb128 .LEHE0-.LEHB0
	.uleb128 .L18-.LFB2839
	.uleb128 0
	.uleb128 .LEHB1-.LFB2839
	.uleb128 .LEHE1-.LEHB1
	.uleb128 0
	.uleb128 0
.LLSDACSE2839:
	.section	.text._ZNSt13random_deviceC2Ev,"axG",@progbits,_ZNSt13random_deviceC5Ev,comdat
	.size	_ZNSt13random_deviceC2Ev, .-_ZNSt13random_deviceC2Ev
	.weak	_ZNSt13random_deviceC1Ev
	.set	_ZNSt13random_deviceC1Ev,_ZNSt13random_deviceC2Ev
	.section	.text._ZNK7TMatrixeqERKS_,"axG",@progbits,_ZNK7TMatrixeqERKS_,comdat
	.align 2
	.p2align 4
	.weak	_ZNK7TMatrixeqERKS_
	.type	_ZNK7TMatrixeqERKS_, @function
_ZNK7TMatrixeqERKS_:
.LFB9968:
	.cfi_startproc
	movq	(%rdi), %rax
	cmpq	(%rsi), %rax
	jne	.L42
	movq	8(%rdi), %rdx
	cmpq	8(%rsi), %rdx
	jne	.L42
	pushq	%r15
	.cfi_def_cfa_offset 16
	.cfi_offset 15, -16
	xorl	%r8d, %r8d
	pushq	%r14
	.cfi_def_cfa_offset 24
	.cfi_offset 14, -24
	pushq	%r13
	.cfi_def_cfa_offset 32
	.cfi_offset 13, -32
	pushq	%r12
	.cfi_def_cfa_offset 40
	.cfi_offset 12, -40
	pushq	%rbp
	.cfi_def_cfa_offset 48
	.cfi_offset 6, -48
	xorl	%ebp, %ebp
	pushq	%rbx
	.cfi_def_cfa_offset 56
	.cfi_offset 3, -56
	testq	%rax, %rax
	je	.L32
	testq	%rdx, %rdx
	je	.L33
	movq	%rax, -8(%rsp)
	movq	16(%rdi), %r11
	movq	16(%rsi), %rdi
.L31:
	movq	(%r11,%r8), %r13
	movq	(%rdi,%r8), %r9
	xorl	%esi, %esi
	xorl	%r14d, %r14d
.L34:
	movq	0(%r13,%rsi), %r15
	movq	(%r9,%rsi), %r12
	xorl	%ebx, %ebx
.L30:
	movq	(%r15,%rbx), %r10
	movq	(%r12,%rbx), %rcx
	xorl	%eax, %eax
	.p2align 4,,10
	.p2align 3
.L27:
	vmovsd	(%r10,%rax), %xmm0
	vucomisd	(%rcx,%rax), %xmm0
	jp	.L23
	jne	.L23
	addq	$8, %rax
	cmpq	$96, %rax
	jne	.L27
	addq	$24, %rbx
	cmpq	$288, %rbx
	jne	.L30
	addq	$1, %r14
	addq	$24, %rsi
	cmpq	%r14, %rdx
	jne	.L34
	addq	$1, %rbp
	addq	$24, %r8
	cmpq	%rbp, -8(%rsp)
	jne	.L31
.L32:
	movl	$1, %eax
	jmp	.L22
	.p2align 4,,10
	.p2align 3
.L42:
	.cfi_def_cfa_offset 8
	.cfi_restore 3
	.cfi_restore 6
	.cfi_restore 12
	.cfi_restore 13
	.cfi_restore 14
	.cfi_restore 15
	xorl	%eax, %eax
	ret
	.p2align 4,,10
	.p2align 3
.L23:
	.cfi_def_cfa_offset 56
	.cfi_offset 3, -56
	.cfi_offset 6, -48
	.cfi_offset 12, -40
	.cfi_offset 13, -32
	.cfi_offset 14, -24
	.cfi_offset 15, -16
	xorl	%eax, %eax
.L22:
	popq	%rbx
	.cfi_remember_state
	.cfi_def_cfa_offset 48
	popq	%rbp
	.cfi_def_cfa_offset 40
	popq	%r12
	.cfi_def_cfa_offset 32
	popq	%r13
	.cfi_def_cfa_offset 24
	popq	%r14
	.cfi_def_cfa_offset 16
	popq	%r15
	.cfi_def_cfa_offset 8
	ret
.L33:
	.cfi_restore_state
	addq	$1, %rbp
	cmpq	%rbp, %rax
	jne	.L33
	jmp	.L32
	.cfi_endproc
.LFE9968:
	.size	_ZNK7TMatrixeqERKS_, .-_ZNK7TMatrixeqERKS_
	.section	.text._ZNSt6vectorIS_IS_IS_IdSaIdEESaIS1_EESaIS3_EESaIS5_EED2Ev,"axG",@progbits,_ZNSt6vectorIS_IS_IS_IdSaIdEESaIS1_EESaIS3_EESaIS5_EED5Ev,comdat
	.align 2
	.p2align 4
	.weak	_ZNSt6vectorIS_IS_IS_IdSaIdEESaIS1_EESaIS3_EESaIS5_EED2Ev
	.type	_ZNSt6vectorIS_IS_IS_IdSaIdEESaIS1_EESaIS3_EESaIS5_EED2Ev, @function
_ZNSt6vectorIS_IS_IS_IdSaIdEESaIS1_EESaIS3_EESaIS5_EED2Ev:
.LFB10353:
	.cfi_startproc
	pushq	%r15
	.cfi_def_cfa_offset 16
	.cfi_offset 15, -16
	pushq	%r14
	.cfi_def_cfa_offset 24
	.cfi_offset 14, -24
	pushq	%r13
	.cfi_def_cfa_offset 32
	.cfi_offset 13, -32
	pushq	%r12
	.cfi_def_cfa_offset 40
	.cfi_offset 12, -40
	pushq	%rbp
	.cfi_def_cfa_offset 48
	.cfi_offset 6, -48
	pushq	%rbx
	.cfi_def_cfa_offset 56
	.cfi_offset 3, -56
	subq	$24, %rsp
	.cfi_def_cfa_offset 80
	movq	8(%rdi), %r14
	movq	(%rdi), %r13
	movq	%rdi, 8(%rsp)
	cmpq	%r13, %r14
	je	.L47
	.p2align 4,,10
	.p2align 3
.L55:
	movq	8(%r13), %r12
	movq	0(%r13), %rbp
	cmpq	%rbp, %r12
	je	.L48
	.p2align 4,,10
	.p2align 3
.L53:
	movq	8(%rbp), %rbx
	movq	0(%rbp), %r15
	cmpq	%r15, %rbx
	je	.L49
	.p2align 4,,10
	.p2align 3
.L51:
	movq	(%r15), %rdi
	testq	%rdi, %rdi
	je	.L50
	movq	16(%r15), %rsi
	subq	%rdi, %rsi
	call	_ZdlPvm@PLT
.L50:
	addq	$24, %r15
	cmpq	%r15, %rbx
	jne	.L51
	movq	0(%rbp), %r15
.L49:
	testq	%r15, %r15
	je	.L52
	movq	16(%rbp), %rsi
	movq	%r15, %rdi
	subq	%r15, %rsi
	call	_ZdlPvm@PLT
.L52:
	addq	$24, %rbp
	cmpq	%rbp, %r12
	jne	.L53
	movq	0(%r13), %rbp
.L48:
	testq	%rbp, %rbp
	je	.L54
	movq	16(%r13), %rsi
	movq	%rbp, %rdi
	subq	%rbp, %rsi
	call	_ZdlPvm@PLT
.L54:
	addq	$24, %r13
	cmpq	%r13, %r14
	jne	.L55
	movq	8(%rsp), %rax
	movq	(%rax), %r13
.L47:
	testq	%r13, %r13
	je	.L69
	movq	8(%rsp), %rax
	movq	%r13, %rdi
	movq	16(%rax), %rsi
	addq	$24, %rsp
	.cfi_remember_state
	.cfi_def_cfa_offset 56
	popq	%rbx
	.cfi_def_cfa_offset 48
	popq	%rbp
	.cfi_def_cfa_offset 40
	subq	%r13, %rsi
	popq	%r12
	.cfi_def_cfa_offset 32
	popq	%r13
	.cfi_def_cfa_offset 24
	popq	%r14
	.cfi_def_cfa_offset 16
	popq	%r15
	.cfi_def_cfa_offset 8
	jmp	_ZdlPvm@PLT
.L69:
	.cfi_restore_state
	addq	$24, %rsp
	.cfi_def_cfa_offset 56
	popq	%rbx
	.cfi_def_cfa_offset 48
	popq	%rbp
	.cfi_def_cfa_offset 40
	popq	%r12
	.cfi_def_cfa_offset 32
	popq	%r13
	.cfi_def_cfa_offset 24
	popq	%r14
	.cfi_def_cfa_offset 16
	popq	%r15
	.cfi_def_cfa_offset 8
	ret
	.cfi_endproc
.LFE10353:
	.size	_ZNSt6vectorIS_IS_IS_IdSaIdEESaIS1_EESaIS3_EESaIS5_EED2Ev, .-_ZNSt6vectorIS_IS_IS_IdSaIdEESaIS1_EESaIS3_EESaIS5_EED2Ev
	.weak	_ZNSt6vectorIS_IS_IS_IdSaIdEESaIS1_EESaIS3_EESaIS5_EED1Ev
	.set	_ZNSt6vectorIS_IS_IS_IdSaIdEESaIS1_EESaIS3_EESaIS5_EED1Ev,_ZNSt6vectorIS_IS_IS_IdSaIdEESaIS1_EESaIS3_EESaIS5_EED2Ev
	.section	.text._ZNSt6vectorIS_IdSaIdEESaIS1_EE5beginEv,"axG",@progbits,_ZNSt6vectorIS_IdSaIdEESaIS1_EE5beginEv,comdat
	.align 2
	.p2align 4
	.weak	_ZNSt6vectorIS_IdSaIdEESaIS1_EE5beginEv
	.type	_ZNSt6vectorIS_IdSaIdEESaIS1_EE5beginEv, @function
_ZNSt6vectorIS_IdSaIdEESaIS1_EE5beginEv:
.LFB10368:
	.cfi_startproc
	movq	(%rdi), %rax
	ret
	.cfi_endproc
.LFE10368:
	.size	_ZNSt6vectorIS_IdSaIdEESaIS1_EE5beginEv, .-_ZNSt6vectorIS_IdSaIdEESaIS1_EE5beginEv
	.section	.text._ZNSt6vectorIS_IdSaIdEESaIS1_EE3endEv,"axG",@progbits,_ZNSt6vectorIS_IdSaIdEESaIS1_EE3endEv,comdat
	.align 2
	.p2align 4
	.weak	_ZNSt6vectorIS_IdSaIdEESaIS1_EE3endEv
	.type	_ZNSt6vectorIS_IdSaIdEESaIS1_EE3endEv, @function
_ZNSt6vectorIS_IdSaIdEESaIS1_EE3endEv:
.LFB10369:
	.cfi_startproc
	movq	8(%rdi), %rax
	ret
	.cfi_endproc
.LFE10369:
	.size	_ZNSt6vectorIS_IdSaIdEESaIS1_EE3endEv, .-_ZNSt6vectorIS_IdSaIdEESaIS1_EE3endEv
	.section	.text._ZN9__gnu_cxxneIPSt6vectorIdSaIdEES1_IS3_SaIS3_EEEEbRKNS_17__normal_iteratorIT_T0_EESC_,"axG",@progbits,_ZN9__gnu_cxxneIPSt6vectorIdSaIdEES1_IS3_SaIS3_EEEEbRKNS_17__normal_iteratorIT_T0_EESC_,comdat
	.p2align 4
	.weak	_ZN9__gnu_cxxneIPSt6vectorIdSaIdEES1_IS3_SaIS3_EEEEbRKNS_17__normal_iteratorIT_T0_EESC_
	.type	_ZN9__gnu_cxxneIPSt6vectorIdSaIdEES1_IS3_SaIS3_EEEEbRKNS_17__normal_iteratorIT_T0_EESC_, @function
_ZN9__gnu_cxxneIPSt6vectorIdSaIdEES1_IS3_SaIS3_EEEEbRKNS_17__normal_iteratorIT_T0_EESC_:
.LFB10370:
	.cfi_startproc
	movq	(%rsi), %rax
	cmpq	%rax, (%rdi)
	setne	%al
	ret
	.cfi_endproc
.LFE10370:
	.size	_ZN9__gnu_cxxneIPSt6vectorIdSaIdEES1_IS3_SaIS3_EEEEbRKNS_17__normal_iteratorIT_T0_EESC_, .-_ZN9__gnu_cxxneIPSt6vectorIdSaIdEES1_IS3_SaIS3_EEEEbRKNS_17__normal_iteratorIT_T0_EESC_
	.section	.rodata._ZNSt6vectorIS_IdSaIdEESaIS1_EEC2EmRKS2_.str1.8,"aMS",@progbits,1
	.align 8
.LC0:
	.string	"cannot create std::vector larger than max_size()"
	.section	.text._ZNSt6vectorIS_IdSaIdEESaIS1_EEC2EmRKS2_,"axG",@progbits,_ZNSt6vectorIS_IdSaIdEESaIS1_EEC5EmRKS2_,comdat
	.align 2
	.p2align 4
	.weak	_ZNSt6vectorIS_IdSaIdEESaIS1_EEC2EmRKS2_
	.type	_ZNSt6vectorIS_IdSaIdEESaIS1_EEC2EmRKS2_, @function
_ZNSt6vectorIS_IdSaIdEESaIS1_EEC2EmRKS2_:
.LFB10381:
	.cfi_startproc
	movabsq	$384307168202282325, %rax
	pushq	%rbp
	.cfi_def_cfa_offset 16
	.cfi_offset 6, -16
	pushq	%rbx
	.cfi_def_cfa_offset 24
	.cfi_offset 3, -24
	subq	$8, %rsp
	.cfi_def_cfa_offset 32
	cmpq	%rsi, %rax
	jb	.L81
	vpxor	%xmm0, %xmm0, %xmm0
	movq	$0, 16(%rdi)
	movq	%rdi, %rbp
	vmovdqu	%xmm0, (%rdi)
	testq	%rsi, %rsi
	je	.L82
	leaq	(%rsi,%rsi,2), %rdx
	leaq	0(,%rdx,8), %rbx
	movq	%rbx, %rdi
	call	_Znwm@PLT
	vpxor	%xmm0, %xmm0, %xmm0
	leaq	(%rax,%rbx), %rdx
	movq	%rax, 0(%rbp)
	movq	%rdx, 16(%rbp)
	.p2align 4,,10
	.p2align 3
.L78:
	movq	$0, 16(%rax)
	addq	$24, %rax
	vmovdqu	%xmm0, -24(%rax)
	cmpq	%rdx, %rax
	jne	.L78
	movq	%rdx, 8(%rbp)
	addq	$8, %rsp
	.cfi_remember_state
	.cfi_def_cfa_offset 24
	popq	%rbx
	.cfi_def_cfa_offset 16
	popq	%rbp
	.cfi_def_cfa_offset 8
	ret
	.p2align 4,,10
	.p2align 3
.L82:
	.cfi_restore_state
	xorl	%edx, %edx
	movq	$0, (%rdi)
	movq	$0, 16(%rdi)
	movq	%rdx, 8(%rbp)
	addq	$8, %rsp
	.cfi_remember_state
	.cfi_def_cfa_offset 24
	popq	%rbx
	.cfi_def_cfa_offset 16
	popq	%rbp
	.cfi_def_cfa_offset 8
	ret
.L81:
	.cfi_restore_state
	leaq	.LC0(%rip), %rdi
	call	_ZSt20__throw_length_errorPKc@PLT
	.cfi_endproc
.LFE10381:
	.size	_ZNSt6vectorIS_IdSaIdEESaIS1_EEC2EmRKS2_, .-_ZNSt6vectorIS_IdSaIdEESaIS1_EEC2EmRKS2_
	.weak	_ZNSt6vectorIS_IdSaIdEESaIS1_EEC1EmRKS2_
	.set	_ZNSt6vectorIS_IdSaIdEESaIS1_EEC1EmRKS2_,_ZNSt6vectorIS_IdSaIdEESaIS1_EEC2EmRKS2_
	.section	.text._ZNSt6vectorIS_IdSaIdEESaIS1_EED2Ev,"axG",@progbits,_ZNSt6vectorIS_IdSaIdEESaIS1_EED5Ev,comdat
	.align 2
	.p2align 4
	.weak	_ZNSt6vectorIS_IdSaIdEESaIS1_EED2Ev
	.type	_ZNSt6vectorIS_IdSaIdEESaIS1_EED2Ev, @function
_ZNSt6vectorIS_IdSaIdEESaIS1_EED2Ev:
.LFB10384:
	.cfi_startproc
	pushq	%r12
	.cfi_def_cfa_offset 16
	.cfi_offset 12, -16
	movq	%rdi, %r12
	pushq	%rbp
	.cfi_def_cfa_offset 24
	.cfi_offset 6, -24
	pushq	%rbx
	.cfi_def_cfa_offset 32
	.cfi_offset 3, -32
	movq	8(%rdi), %rbp
	movq	(%rdi), %rbx
	cmpq	%rbx, %rbp
	je	.L84
	.p2align 4,,10
	.p2align 3
.L86:
	movq	(%rbx), %rdi
	testq	%rdi, %rdi
	je	.L85
	movq	16(%rbx), %rsi
	subq	%rdi, %rsi
	call	_ZdlPvm@PLT
.L85:
	addq	$24, %rbx
	cmpq	%rbx, %rbp
	jne	.L86
	movq	(%r12), %rbx
.L84:
	testq	%rbx, %rbx
	je	.L92
	movq	16(%r12), %rsi
	movq	%rbx, %rdi
	subq	%rbx, %rsi
	popq	%rbx
	.cfi_remember_state
	.cfi_def_cfa_offset 24
	popq	%rbp
	.cfi_def_cfa_offset 16
	popq	%r12
	.cfi_def_cfa_offset 8
	jmp	_ZdlPvm@PLT
	.p2align 4,,10
	.p2align 3
.L92:
	.cfi_restore_state
	popq	%rbx
	.cfi_def_cfa_offset 24
	popq	%rbp
	.cfi_def_cfa_offset 16
	popq	%r12
	.cfi_def_cfa_offset 8
	ret
	.cfi_endproc
.LFE10384:
	.size	_ZNSt6vectorIS_IdSaIdEESaIS1_EED2Ev, .-_ZNSt6vectorIS_IdSaIdEESaIS1_EED2Ev
	.weak	_ZNSt6vectorIS_IdSaIdEESaIS1_EED1Ev
	.set	_ZNSt6vectorIS_IdSaIdEESaIS1_EED1Ev,_ZNSt6vectorIS_IdSaIdEESaIS1_EED2Ev
	.section	.rodata._ZNSt6vectorIS_IS_IS_IdSaIdEESaIS1_EESaIS3_EESaIS5_EE17_M_default_appendEm.str1.1,"aMS",@progbits,1
.LC1:
	.string	"vector::_M_default_append"
	.section	.text._ZNSt6vectorIS_IS_IS_IdSaIdEESaIS1_EESaIS3_EESaIS5_EE17_M_default_appendEm,"axG",@progbits,_ZNSt6vectorIS_IS_IS_IdSaIdEESaIS1_EESaIS3_EESaIS5_EE17_M_default_appendEm,comdat
	.align 2
	.p2align 4
	.weak	_ZNSt6vectorIS_IS_IS_IdSaIdEESaIS1_EESaIS3_EESaIS5_EE17_M_default_appendEm
	.type	_ZNSt6vectorIS_IS_IS_IdSaIdEESaIS1_EESaIS3_EESaIS5_EE17_M_default_appendEm, @function
_ZNSt6vectorIS_IS_IS_IdSaIdEESaIS1_EESaIS3_EESaIS5_EE17_M_default_appendEm:
.LFB10597:
	.cfi_startproc
	testq	%rsi, %rsi
	je	.L117
	movabsq	$384307168202282325, %rdx
	pushq	%r15
	.cfi_def_cfa_offset 16
	.cfi_offset 15, -16
	pushq	%r14
	.cfi_def_cfa_offset 24
	.cfi_offset 14, -24
	pushq	%r13
	.cfi_def_cfa_offset 32
	.cfi_offset 13, -32
	pushq	%r12
	.cfi_def_cfa_offset 40
	.cfi_offset 12, -40
	movq	%rdi, %r12
	pushq	%rbp
	.cfi_def_cfa_offset 48
	.cfi_offset 6, -48
	pushq	%rbx
	.cfi_def_cfa_offset 56
	.cfi_offset 3, -56
	movq	%rsi, %rbx
	movq	%rdx, %rsi
	subq	$8, %rsp
	.cfi_def_cfa_offset 64
	movq	8(%rdi), %rax
	movq	16(%r12), %rdx
	movq	%rax, %rbp
	subq	(%rdi), %rbp
	subq	%rax, %rdx
	movabsq	$-6148914691236517205, %rdi
	movq	%rbp, %rcx
	sarq	$3, %rdx
	sarq	$3, %rcx
	imulq	%rdi, %rdx
	imulq	%rdi, %rcx
	subq	%rcx, %rsi
	cmpq	%rbx, %rdx
	jb	.L96
	leaq	(%rbx,%rbx,2), %rdx
	vpxor	%xmm0, %xmm0, %xmm0
	leaq	(%rax,%rdx,8), %rdx
	.p2align 4,,10
	.p2align 3
.L97:
	movq	$0, 16(%rax)
	addq	$24, %rax
	vmovdqu	%xmm0, -24(%rax)
	cmpq	%rdx, %rax
	jne	.L97
	movq	%rax, 8(%r12)
	addq	$8, %rsp
	.cfi_def_cfa_offset 56
	popq	%rbx
	.cfi_def_cfa_offset 48
	popq	%rbp
	.cfi_def_cfa_offset 40
	popq	%r12
	.cfi_def_cfa_offset 32
	popq	%r13
	.cfi_def_cfa_offset 24
	popq	%r14
	.cfi_def_cfa_offset 16
	popq	%r15
	.cfi_def_cfa_offset 8
	ret
.L117:
	.cfi_restore 3
	.cfi_restore 6
	.cfi_restore 12
	.cfi_restore 13
	.cfi_restore 14
	.cfi_restore 15
	ret
.L96:
	.cfi_def_cfa_offset 64
	.cfi_offset 3, -56
	.cfi_offset 6, -48
	.cfi_offset 12, -40
	.cfi_offset 13, -32
	.cfi_offset 14, -24
	.cfi_offset 15, -16
	cmpq	%rbx, %rsi
	jb	.L120
	leaq	(%rbx,%rcx), %r15
	cmpq	%rbx, %rcx
	jb	.L121
	movabsq	$9223372036854775800, %r13
	leaq	(%rcx,%rcx), %rax
	cmpq	%rcx, %rax
	jnb	.L122
.L100:
	movq	%r13, %rdi
	call	_Znwm@PLT
	movq	8(%r12), %rsi
	movq	(%r12), %rdi
	vpxor	%xmm0, %xmm0, %xmm0
	movq	16(%r12), %r8
	movq	%rax, %r14
	addq	%rax, %r13
	leaq	(%rax,%rbp), %rax
	.p2align 4,,10
	.p2align 3
.L101:
	movq	$0, 16(%rax)
	addq	$24, %rax
	vmovdqu	%xmm0, -24(%rax)
	subq	$1, %rbx
	jne	.L101
	movq	%rdi, %rax
	movq	%r14, %rdx
	cmpq	%rdi, %rsi
	je	.L105
	.p2align 4,,10
	.p2align 3
.L102:
	vmovdqu	(%rax), %xmm1
	movq	16(%rax), %rcx
	addq	$24, %rax
	addq	$24, %rdx
	vmovdqu	%xmm1, -24(%rdx)
	movq	%rcx, -8(%rdx)
	cmpq	%rsi, %rax
	jne	.L102
.L105:
	testq	%rdi, %rdi
	je	.L104
	movq	%r8, %rsi
	subq	%rdi, %rsi
	call	_ZdlPvm@PLT
.L104:
	leaq	(%r15,%r15,2), %rax
	movq	%r14, (%r12)
	leaq	(%r14,%rax,8), %rax
	movq	%r13, 16(%r12)
	movq	%rax, 8(%r12)
	addq	$8, %rsp
	.cfi_remember_state
	.cfi_def_cfa_offset 56
	popq	%rbx
	.cfi_def_cfa_offset 48
	popq	%rbp
	.cfi_def_cfa_offset 40
	popq	%r12
	.cfi_def_cfa_offset 32
	popq	%r13
	.cfi_def_cfa_offset 24
	popq	%r14
	.cfi_def_cfa_offset 16
	popq	%r15
	.cfi_def_cfa_offset 8
	ret
.L121:
	.cfi_restore_state
	movabsq	$384307168202282325, %rax
	cmpq	%rax, %r15
	cmovbe	%r15, %rax
	leaq	(%rax,%rax,2), %r13
	salq	$3, %r13
	jmp	.L100
.L120:
	leaq	.LC1(%rip), %rdi
	call	_ZSt20__throw_length_errorPKc@PLT
.L122:
	movabsq	$384307168202282325, %rdx
	cmpq	%rdx, %rax
	cmova	%rdx, %rax
	imulq	$24, %rax, %r13
	jmp	.L100
	.cfi_endproc
.LFE10597:
	.size	_ZNSt6vectorIS_IS_IS_IdSaIdEESaIS1_EESaIS3_EESaIS5_EE17_M_default_appendEm, .-_ZNSt6vectorIS_IS_IS_IdSaIdEESaIS1_EESaIS3_EESaIS5_EE17_M_default_appendEm
	.section	.text._ZNSt6vectorIS_IS_IdSaIdEESaIS1_EESaIS3_EE17_M_default_appendEm,"axG",@progbits,_ZNSt6vectorIS_IS_IdSaIdEESaIS1_EESaIS3_EE17_M_default_appendEm,comdat
	.align 2
	.p2align 4
	.weak	_ZNSt6vectorIS_IS_IdSaIdEESaIS1_EESaIS3_EE17_M_default_appendEm
	.type	_ZNSt6vectorIS_IS_IdSaIdEESaIS1_EESaIS3_EE17_M_default_appendEm, @function
_ZNSt6vectorIS_IS_IdSaIdEESaIS1_EESaIS3_EE17_M_default_appendEm:
.LFB10608:
	.cfi_startproc
	testq	%rsi, %rsi
	je	.L146
	movabsq	$384307168202282325, %rdx
	pushq	%r15
	.cfi_def_cfa_offset 16
	.cfi_offset 15, -16
	pushq	%r14
	.cfi_def_cfa_offset 24
	.cfi_offset 14, -24
	pushq	%r13
	.cfi_def_cfa_offset 32
	.cfi_offset 13, -32
	pushq	%r12
	.cfi_def_cfa_offset 40
	.cfi_offset 12, -40
	movq	%rdi, %r12
	pushq	%rbp
	.cfi_def_cfa_offset 48
	.cfi_offset 6, -48
	pushq	%rbx
	.cfi_def_cfa_offset 56
	.cfi_offset 3, -56
	movq	%rsi, %rbx
	movq	%rdx, %rsi
	subq	$8, %rsp
	.cfi_def_cfa_offset 64
	movq	8(%rdi), %rax
	movq	16(%r12), %rdx
	movq	%rax, %rbp
	subq	(%rdi), %rbp
	subq	%rax, %rdx
	movabsq	$-6148914691236517205, %rdi
	movq	%rbp, %rcx
	sarq	$3, %rdx
	sarq	$3, %rcx
	imulq	%rdi, %rdx
	imulq	%rdi, %rcx
	subq	%rcx, %rsi
	cmpq	%rbx, %rdx
	jb	.L125
	leaq	(%rbx,%rbx,2), %rdx
	vpxor	%xmm0, %xmm0, %xmm0
	leaq	(%rax,%rdx,8), %rdx
	.p2align 4,,10
	.p2align 3
.L126:
	movq	$0, 16(%rax)
	addq	$24, %rax
	vmovdqu	%xmm0, -24(%rax)
	cmpq	%rdx, %rax
	jne	.L126
	movq	%rax, 8(%r12)
	addq	$8, %rsp
	.cfi_def_cfa_offset 56
	popq	%rbx
	.cfi_def_cfa_offset 48
	popq	%rbp
	.cfi_def_cfa_offset 40
	popq	%r12
	.cfi_def_cfa_offset 32
	popq	%r13
	.cfi_def_cfa_offset 24
	popq	%r14
	.cfi_def_cfa_offset 16
	popq	%r15
	.cfi_def_cfa_offset 8
	ret
	.p2align 4,,10
	.p2align 3
.L146:
	.cfi_restore 3
	.cfi_restore 6
	.cfi_restore 12
	.cfi_restore 13
	.cfi_restore 14
	.cfi_restore 15
	ret
	.p2align 4,,10
	.p2align 3
.L125:
	.cfi_def_cfa_offset 64
	.cfi_offset 3, -56
	.cfi_offset 6, -48
	.cfi_offset 12, -40
	.cfi_offset 13, -32
	.cfi_offset 14, -24
	.cfi_offset 15, -16
	cmpq	%rbx, %rsi
	jb	.L149
	leaq	(%rbx,%rcx), %r15
	cmpq	%rbx, %rcx
	jb	.L150
	movabsq	$9223372036854775800, %r14
	leaq	(%rcx,%rcx), %rax
	cmpq	%rcx, %rax
	jnb	.L151
.L129:
	movq	%r14, %rdi
	call	_Znwm@PLT
	movq	8(%r12), %rdi
	movq	(%r12), %r8
	vpxor	%xmm0, %xmm0, %xmm0
	movq	16(%r12), %rsi
	movq	%rax, %r13
	addq	%rax, %r14
	leaq	(%rax,%rbp), %rax
	.p2align 4,,10
	.p2align 3
.L130:
	movq	$0, 16(%rax)
	addq	$24, %rax
	vmovdqu	%xmm0, -24(%rax)
	subq	$1, %rbx
	jne	.L130
	movq	%r8, %rax
	movq	%r13, %rdx
	cmpq	%r8, %rdi
	je	.L134
	.p2align 4,,10
	.p2align 3
.L131:
	vmovdqu	(%rax), %xmm1
	movq	16(%rax), %rcx
	addq	$24, %rax
	addq	$24, %rdx
	vmovdqu	%xmm1, -24(%rdx)
	movq	%rcx, -8(%rdx)
	cmpq	%rdi, %rax
	jne	.L131
.L134:
	testq	%r8, %r8
	je	.L133
	subq	%r8, %rsi
	movq	%r8, %rdi
	call	_ZdlPvm@PLT
.L133:
	leaq	(%r15,%r15,2), %rax
	movq	%r13, (%r12)
	leaq	0(%r13,%rax,8), %rax
	movq	%r14, 16(%r12)
	movq	%rax, 8(%r12)
	addq	$8, %rsp
	.cfi_remember_state
	.cfi_def_cfa_offset 56
	popq	%rbx
	.cfi_def_cfa_offset 48
	popq	%rbp
	.cfi_def_cfa_offset 40
	popq	%r12
	.cfi_def_cfa_offset 32
	popq	%r13
	.cfi_def_cfa_offset 24
	popq	%r14
	.cfi_def_cfa_offset 16
	popq	%r15
	.cfi_def_cfa_offset 8
	ret
.L150:
	.cfi_restore_state
	movabsq	$384307168202282325, %rax
	cmpq	%rax, %r15
	cmovbe	%r15, %rax
	leaq	(%rax,%rax,2), %r14
	salq	$3, %r14
	jmp	.L129
.L149:
	leaq	.LC1(%rip), %rdi
	call	_ZSt20__throw_length_errorPKc@PLT
.L151:
	movabsq	$384307168202282325, %rdx
	cmpq	%rdx, %rax
	cmova	%rdx, %rax
	imulq	$24, %rax, %r14
	jmp	.L129
	.cfi_endproc
.LFE10608:
	.size	_ZNSt6vectorIS_IS_IdSaIdEESaIS1_EESaIS3_EE17_M_default_appendEm, .-_ZNSt6vectorIS_IS_IdSaIdEESaIS1_EESaIS3_EE17_M_default_appendEm
	.section	.text._ZNSt6vectorIS_IdSaIdEESaIS1_EE17_M_default_appendEm,"axG",@progbits,_ZNSt6vectorIS_IdSaIdEESaIS1_EE17_M_default_appendEm,comdat
	.align 2
	.p2align 4
	.weak	_ZNSt6vectorIS_IdSaIdEESaIS1_EE17_M_default_appendEm
	.type	_ZNSt6vectorIS_IdSaIdEESaIS1_EE17_M_default_appendEm, @function
_ZNSt6vectorIS_IdSaIdEESaIS1_EE17_M_default_appendEm:
.LFB10619:
	.cfi_startproc
	testq	%rsi, %rsi
	je	.L175
	movabsq	$384307168202282325, %rdx
	pushq	%r15
	.cfi_def_cfa_offset 16
	.cfi_offset 15, -16
	pushq	%r14
	.cfi_def_cfa_offset 24
	.cfi_offset 14, -24
	pushq	%r13
	.cfi_def_cfa_offset 32
	.cfi_offset 13, -32
	pushq	%r12
	.cfi_def_cfa_offset 40
	.cfi_offset 12, -40
	movq	%rdi, %r12
	pushq	%rbp
	.cfi_def_cfa_offset 48
	.cfi_offset 6, -48
	pushq	%rbx
	.cfi_def_cfa_offset 56
	.cfi_offset 3, -56
	movq	%rsi, %rbx
	movq	%rdx, %rsi
	subq	$8, %rsp
	.cfi_def_cfa_offset 64
	movq	8(%rdi), %rax
	movq	16(%r12), %rdx
	movq	%rax, %rbp
	subq	(%rdi), %rbp
	subq	%rax, %rdx
	movabsq	$-6148914691236517205, %rdi
	movq	%rbp, %rcx
	sarq	$3, %rdx
	sarq	$3, %rcx
	imulq	%rdi, %rdx
	imulq	%rdi, %rcx
	subq	%rcx, %rsi
	cmpq	%rbx, %rdx
	jb	.L154
	leaq	(%rbx,%rbx,2), %rdx
	vpxor	%xmm0, %xmm0, %xmm0
	leaq	(%rax,%rdx,8), %rdx
	.p2align 4,,10
	.p2align 3
.L155:
	movq	$0, 16(%rax)
	addq	$24, %rax
	vmovdqu	%xmm0, -24(%rax)
	cmpq	%rdx, %rax
	jne	.L155
	movq	%rax, 8(%r12)
	addq	$8, %rsp
	.cfi_def_cfa_offset 56
	popq	%rbx
	.cfi_def_cfa_offset 48
	popq	%rbp
	.cfi_def_cfa_offset 40
	popq	%r12
	.cfi_def_cfa_offset 32
	popq	%r13
	.cfi_def_cfa_offset 24
	popq	%r14
	.cfi_def_cfa_offset 16
	popq	%r15
	.cfi_def_cfa_offset 8
	ret
	.p2align 4,,10
	.p2align 3
.L175:
	.cfi_restore 3
	.cfi_restore 6
	.cfi_restore 12
	.cfi_restore 13
	.cfi_restore 14
	.cfi_restore 15
	ret
	.p2align 4,,10
	.p2align 3
.L154:
	.cfi_def_cfa_offset 64
	.cfi_offset 3, -56
	.cfi_offset 6, -48
	.cfi_offset 12, -40
	.cfi_offset 13, -32
	.cfi_offset 14, -24
	.cfi_offset 15, -16
	cmpq	%rbx, %rsi
	jb	.L178
	leaq	(%rbx,%rcx), %r15
	cmpq	%rbx, %rcx
	jb	.L179
	movabsq	$9223372036854775800, %r14
	leaq	(%rcx,%rcx), %rax
	cmpq	%rcx, %rax
	jnb	.L180
.L158:
	movq	%r14, %rdi
	call	_Znwm@PLT
	movq	8(%r12), %rdi
	movq	(%r12), %r8
	vpxor	%xmm0, %xmm0, %xmm0
	movq	16(%r12), %rsi
	movq	%rax, %r13
	addq	%rax, %r14
	leaq	(%rax,%rbp), %rax
	.p2align 4,,10
	.p2align 3
.L159:
	movq	$0, 16(%rax)
	addq	$24, %rax
	vmovdqu	%xmm0, -24(%rax)
	subq	$1, %rbx
	jne	.L159
	movq	%r8, %rax
	movq	%r13, %rdx
	cmpq	%r8, %rdi
	je	.L163
	.p2align 4,,10
	.p2align 3
.L160:
	vmovdqu	(%rax), %xmm1
	movq	16(%rax), %rcx
	addq	$24, %rax
	addq	$24, %rdx
	vmovdqu	%xmm1, -24(%rdx)
	movq	%rcx, -8(%rdx)
	cmpq	%rdi, %rax
	jne	.L160
.L163:
	testq	%r8, %r8
	je	.L162
	subq	%r8, %rsi
	movq	%r8, %rdi
	call	_ZdlPvm@PLT
.L162:
	leaq	(%r15,%r15,2), %rax
	movq	%r13, (%r12)
	leaq	0(%r13,%rax,8), %rax
	movq	%r14, 16(%r12)
	movq	%rax, 8(%r12)
	addq	$8, %rsp
	.cfi_remember_state
	.cfi_def_cfa_offset 56
	popq	%rbx
	.cfi_def_cfa_offset 48
	popq	%rbp
	.cfi_def_cfa_offset 40
	popq	%r12
	.cfi_def_cfa_offset 32
	popq	%r13
	.cfi_def_cfa_offset 24
	popq	%r14
	.cfi_def_cfa_offset 16
	popq	%r15
	.cfi_def_cfa_offset 8
	ret
	.p2align 4,,10
	.p2align 3
.L179:
	.cfi_restore_state
	movabsq	$384307168202282325, %rax
	cmpq	%rax, %r15
	cmovbe	%r15, %rax
	leaq	(%rax,%rax,2), %r14
	salq	$3, %r14
	jmp	.L158
.L178:
	leaq	.LC1(%rip), %rdi
	call	_ZSt20__throw_length_errorPKc@PLT
.L180:
	movabsq	$384307168202282325, %rdx
	cmpq	%rdx, %rax
	cmova	%rdx, %rax
	imulq	$24, %rax, %r14
	jmp	.L158
	.cfi_endproc
.LFE10619:
	.size	_ZNSt6vectorIS_IdSaIdEESaIS1_EE17_M_default_appendEm, .-_ZNSt6vectorIS_IdSaIdEESaIS1_EE17_M_default_appendEm
	.section	.text._ZNSt6vectorIdSaIdEE17_M_default_appendEm,"axG",@progbits,_ZNSt6vectorIdSaIdEE17_M_default_appendEm,comdat
	.align 2
	.p2align 4
	.weak	_ZNSt6vectorIdSaIdEE17_M_default_appendEm
	.type	_ZNSt6vectorIdSaIdEE17_M_default_appendEm, @function
_ZNSt6vectorIdSaIdEE17_M_default_appendEm:
.LFB10630:
	.cfi_startproc
	testq	%rsi, %rsi
	je	.L207
	movabsq	$1152921504606846975, %rax
	pushq	%r15
	.cfi_def_cfa_offset 16
	.cfi_offset 15, -16
	pushq	%r14
	.cfi_def_cfa_offset 24
	.cfi_offset 14, -24
	pushq	%r13
	.cfi_def_cfa_offset 32
	.cfi_offset 13, -32
	pushq	%r12
	.cfi_def_cfa_offset 40
	.cfi_offset 12, -40
	pushq	%rbp
	.cfi_def_cfa_offset 48
	.cfi_offset 6, -48
	movq	%rdi, %rbp
	pushq	%rbx
	.cfi_def_cfa_offset 56
	.cfi_offset 3, -56
	movq	%rsi, %rbx
	subq	$24, %rsp
	.cfi_def_cfa_offset 80
	movq	8(%rdi), %rdx
	movq	%rdx, %r12
	subq	(%rdi), %r12
	movq	%r12, %rcx
	sarq	$3, %rcx
	subq	%rcx, %rax
	movq	%rax, %rsi
	movq	16(%rdi), %rax
	subq	%rdx, %rax
	sarq	$3, %rax
	cmpq	%rbx, %rax
	jnb	.L210
	cmpq	%rbx, %rsi
	jb	.L211
	leaq	(%rbx,%rcx), %r14
	cmpq	%rbx, %rcx
	jb	.L212
	movabsq	$9223372036854775800, %r13
	leaq	(%rcx,%rcx), %rax
	cmpq	%rcx, %rax
	jnb	.L213
.L187:
	movq	%r13, %rdi
	call	_Znwm@PLT
	movq	0(%rbp), %r8
	movq	8(%rbp), %rcx
	addq	%rax, %r12
	movq	%rax, %r15
	addq	%rax, %r13
	movq	$0x000000000, (%r12)
	subq	%r8, %rcx
	subq	$1, %rbx
	je	.L191
	leaq	8(%r12), %rdi
	leaq	0(,%rbx,8), %rdx
	xorl	%esi, %esi
	movq	%rcx, 8(%rsp)
	movq	%r8, (%rsp)
	call	memset@PLT
	movq	(%rsp), %r8
	movq	8(%rsp), %rcx
.L191:
	testq	%rcx, %rcx
	jg	.L214
	testq	%r8, %r8
	jne	.L215
.L193:
	leaq	(%r15,%r14,8), %rax
	movq	%r15, 0(%rbp)
	movq	%rax, 8(%rbp)
	movq	%r13, 16(%rbp)
	addq	$24, %rsp
	.cfi_remember_state
	.cfi_def_cfa_offset 56
	popq	%rbx
	.cfi_def_cfa_offset 48
	popq	%rbp
	.cfi_def_cfa_offset 40
	popq	%r12
	.cfi_def_cfa_offset 32
	popq	%r13
	.cfi_def_cfa_offset 24
	popq	%r14
	.cfi_def_cfa_offset 16
	popq	%r15
	.cfi_def_cfa_offset 8
	ret
	.p2align 4,,10
	.p2align 3
.L210:
	.cfi_restore_state
	movq	$0x000000000, (%rdx)
	leaq	8(%rdx), %rcx
	subq	$1, %rbx
	je	.L184
	leaq	(%rcx,%rbx,8), %rax
	movq	%rcx, %rdi
	xorl	%esi, %esi
	subq	%rdx, %rax
	leaq	-8(%rax), %rbx
	movq	%rbx, %rdx
	call	memset@PLT
	movq	%rax, %rcx
	addq	%rbx, %rcx
.L184:
	movq	%rcx, 8(%rbp)
	addq	$24, %rsp
	.cfi_def_cfa_offset 56
	popq	%rbx
	.cfi_def_cfa_offset 48
	popq	%rbp
	.cfi_def_cfa_offset 40
	popq	%r12
	.cfi_def_cfa_offset 32
	popq	%r13
	.cfi_def_cfa_offset 24
	popq	%r14
	.cfi_def_cfa_offset 16
	popq	%r15
	.cfi_def_cfa_offset 8
	ret
	.p2align 4,,10
	.p2align 3
.L207:
	.cfi_restore 3
	.cfi_restore 6
	.cfi_restore 12
	.cfi_restore 13
	.cfi_restore 14
	.cfi_restore 15
	ret
	.p2align 4,,10
	.p2align 3
.L212:
	.cfi_def_cfa_offset 80
	.cfi_offset 3, -56
	.cfi_offset 6, -48
	.cfi_offset 12, -40
	.cfi_offset 13, -32
	.cfi_offset 14, -24
	.cfi_offset 15, -16
	movabsq	$1152921504606846975, %r13
	cmpq	%r13, %r14
	cmovbe	%r14, %r13
	salq	$3, %r13
	jmp	.L187
	.p2align 4,,10
	.p2align 3
.L214:
	movq	%r8, %rsi
	movq	%rcx, %rdx
	movq	%r15, %rdi
	movq	%r8, (%rsp)
	call	memmove@PLT
	movq	16(%rbp), %rsi
	movq	(%rsp), %r8
	subq	%r8, %rsi
.L192:
	movq	%r8, %rdi
	call	_ZdlPvm@PLT
	jmp	.L193
	.p2align 4,,10
	.p2align 3
.L215:
	movq	16(%rbp), %rsi
	subq	%r8, %rsi
	jmp	.L192
.L211:
	leaq	.LC1(%rip), %rdi
	call	_ZSt20__throw_length_errorPKc@PLT
.L213:
	movabsq	$1152921504606846975, %rdx
	cmpq	%rdx, %rax
	cmova	%rdx, %rax
	leaq	0(,%rax,8), %r13
	jmp	.L187
	.cfi_endproc
.LFE10630:
	.size	_ZNSt6vectorIdSaIdEE17_M_default_appendEm, .-_ZNSt6vectorIdSaIdEE17_M_default_appendEm
	.section	.text._ZNSt6vectorIdSaIdEE6resizeEm,"axG",@progbits,_ZNSt6vectorIdSaIdEE6resizeEm,comdat
	.align 2
	.p2align 4
	.weak	_ZNSt6vectorIdSaIdEE6resizeEm
	.type	_ZNSt6vectorIdSaIdEE6resizeEm, @function
_ZNSt6vectorIdSaIdEE6resizeEm:
.LFB10373:
	.cfi_startproc
	movq	8(%rdi), %rdx
	movq	(%rdi), %rcx
	movq	%rdx, %rax
	subq	%rcx, %rax
	sarq	$3, %rax
	cmpq	%rsi, %rax
	jb	.L220
	cmpq	%rax, %rsi
	jnb	.L219
	leaq	(%rcx,%rsi,8), %rax
	cmpq	%rdx, %rax
	je	.L219
	movq	%rax, 8(%rdi)
.L219:
	ret
	.p2align 4,,10
	.p2align 3
.L220:
	subq	%rax, %rsi
	jmp	_ZNSt6vectorIdSaIdEE17_M_default_appendEm
	.cfi_endproc
.LFE10373:
	.size	_ZNSt6vectorIdSaIdEE6resizeEm, .-_ZNSt6vectorIdSaIdEE6resizeEm
	.section	.text._ZN7TMatrixC2Emm,"axG",@progbits,_ZN7TMatrixC5Emm,comdat
	.align 2
	.p2align 4
	.weak	_ZN7TMatrixC2Emm
	.type	_ZN7TMatrixC2Emm, @function
_ZN7TMatrixC2Emm:
.LFB9960:
	.cfi_startproc
	.cfi_personality 0x9b,DW.ref.__gxx_personality_v0
	.cfi_lsda 0x1b,.LLSDA9960
	pushq	%r15
	.cfi_def_cfa_offset 16
	.cfi_offset 15, -16
	vpxor	%xmm0, %xmm0, %xmm0
	pushq	%r14
	.cfi_def_cfa_offset 24
	.cfi_offset 14, -24
	pushq	%r13
	.cfi_def_cfa_offset 32
	.cfi_offset 13, -32
	pushq	%r12
	.cfi_def_cfa_offset 40
	.cfi_offset 12, -40
	pushq	%rbp
	.cfi_def_cfa_offset 48
	.cfi_offset 6, -48
	pushq	%rbx
	.cfi_def_cfa_offset 56
	.cfi_offset 3, -56
	subq	$40, %rsp
	.cfi_def_cfa_offset 96
	movq	%rsi, (%rdi)
	movq	%rdi, 8(%rsp)
	movq	%rdx, 8(%rdi)
	movq	$0, 32(%rdi)
	vmovdqu	%xmm0, 16(%rdi)
	testq	%rsi, %rsi
	jne	.L272
.L270:
	addq	$40, %rsp
	.cfi_remember_state
	.cfi_def_cfa_offset 56
	popq	%rbx
	.cfi_def_cfa_offset 48
	popq	%rbp
	.cfi_def_cfa_offset 40
	popq	%r12
	.cfi_def_cfa_offset 32
	popq	%r13
	.cfi_def_cfa_offset 24
	popq	%r14
	.cfi_def_cfa_offset 16
	popq	%r15
	.cfi_def_cfa_offset 8
	ret
.L272:
	.cfi_restore_state
	movq	%rdi, %rax
	movq	%rdi, %rbx
	addq	$16, %rax
	movq	%rax, %rdi
	movq	%rax, 24(%rsp)
.LEHB2:
	call	_ZNSt6vectorIS_IS_IS_IdSaIdEESaIS1_EESaIS3_EESaIS5_EE17_M_default_appendEm
	movq	24(%rbx), %rdi
	movq	16(%rbx), %rax
	movl	$12, %r13d
	movq	%rdi, 16(%rsp)
	movq	%rax, (%rsp)
	cmpq	%rdi, %rax
	je	.L270
	.p2align 4,,10
	.p2align 3
.L232:
	movabsq	$-6148914691236517205, %rdi
	movq	8(%rsp), %rax
	movq	8(%rax), %rsi
	movq	(%rsp), %rax
	movq	8(%rax), %r14
	movq	(%rax), %rdx
	movq	%r14, %rax
	subq	%rdx, %rax
	sarq	$3, %rax
	imulq	%rdi, %rax
	cmpq	%rsi, %rax
	jb	.L273
	cmpq	%rax, %rsi
	jb	.L274
.L225:
	movq	%rdx, %r12
	cmpq	%rdx, %r14
	je	.L239
	.p2align 4,,10
	.p2align 3
.L238:
	movq	8(%r12), %rbp
	movq	(%r12), %rdx
	movq	%rbp, %rax
	subq	%rdx, %rax
	cmpq	$264, %rax
	jbe	.L275
	cmpq	$288, %rax
	ja	.L276
.L234:
	movq	%rdx, %rbx
	cmpq	%rbp, %rdx
	jne	.L243
	jmp	.L244
	.p2align 4,,10
	.p2align 3
.L240:
	cmpq	$96, %rax
	jbe	.L241
	addq	$96, %rdx
	cmpq	%rdx, %rcx
	je	.L241
	movq	%rdx, 8(%rbx)
.L241:
	addq	$24, %rbx
	cmpq	%rbx, %rbp
	je	.L244
.L243:
	movq	8(%rbx), %rcx
	movq	(%rbx), %rdx
	movq	%rcx, %rax
	subq	%rdx, %rax
	cmpq	$88, %rax
	ja	.L240
	sarq	$3, %rax
	movq	%r13, %rsi
	movq	%rbx, %rdi
	subq	%rax, %rsi
	call	_ZNSt6vectorIdSaIdEE17_M_default_appendEm
	addq	$24, %rbx
	cmpq	%rbx, %rbp
	jne	.L243
.L244:
	addq	$24, %r12
	cmpq	%r12, %r14
	jne	.L238
.L239:
	addq	$24, (%rsp)
	movq	(%rsp), %rax
	cmpq	%rax, 16(%rsp)
	jne	.L232
	jmp	.L270
	.p2align 4,,10
	.p2align 3
.L275:
	movabsq	$-6148914691236517205, %rdi
	sarq	$3, %rax
	movq	%r13, %rsi
	imulq	%rdi, %rax
	movq	%r12, %rdi
	subq	%rax, %rsi
	call	_ZNSt6vectorIS_IdSaIdEESaIS1_EE17_M_default_appendEm
	movq	8(%r12), %rbp
	movq	(%r12), %rdx
	jmp	.L234
	.p2align 4,,10
	.p2align 3
.L276:
	leaq	288(%rdx), %rbx
	cmpq	%rbx, %rbp
	je	.L234
	movq	%rbx, %r15
	.p2align 4,,10
	.p2align 3
.L236:
	movq	(%r15), %rdi
	testq	%rdi, %rdi
	je	.L235
	movq	16(%r15), %rsi
	subq	%rdi, %rsi
	call	_ZdlPvm@PLT
.L235:
	addq	$24, %r15
	cmpq	%r15, %rbp
	jne	.L236
	movq	%rbx, 8(%r12)
	movq	(%r12), %rdx
	movq	%rbx, %rbp
	jmp	.L234
.L273:
	movq	(%rsp), %rbx
	subq	%rax, %rsi
	movq	%rbx, %rdi
	call	_ZNSt6vectorIS_IS_IdSaIdEESaIS1_EESaIS3_EE17_M_default_appendEm
.LEHE2:
	movq	(%rbx), %rdx
	movq	8(%rbx), %r14
	jmp	.L225
.L274:
	leaq	(%rsi,%rsi,2), %rax
	leaq	(%rdx,%rax,8), %r12
	cmpq	%r12, %r14
	je	.L225
	movq	%r12, %rbp
	.p2align 4,,10
	.p2align 3
.L230:
	movq	8(%rbp), %rbx
	movq	0(%rbp), %r15
	cmpq	%r15, %rbx
	je	.L226
	.p2align 4,,10
	.p2align 3
.L228:
	movq	(%r15), %rdi
	testq	%rdi, %rdi
	je	.L227
	movq	16(%r15), %rsi
	subq	%rdi, %rsi
	call	_ZdlPvm@PLT
.L227:
	addq	$24, %r15
	cmpq	%r15, %rbx
	jne	.L228
	movq	0(%rbp), %r15
.L226:
	testq	%r15, %r15
	je	.L229
	movq	16(%rbp), %rsi
	movq	%r15, %rdi
	subq	%r15, %rsi
	call	_ZdlPvm@PLT
.L229:
	addq	$24, %rbp
	cmpq	%rbp, %r14
	jne	.L230
	movq	(%rsp), %rax
	movq	%r12, %r14
	movq	%r12, 8(%rax)
	movq	(%rax), %rdx
	jmp	.L225
.L248:
	movq	%rax, %rbx
.L245:
	movq	24(%rsp), %rdi
	vzeroupper
	call	_ZNSt6vectorIS_IS_IS_IdSaIdEESaIS1_EESaIS3_EESaIS5_EED1Ev
	movq	%rbx, %rdi
.LEHB3:
	call	_Unwind_Resume@PLT
.LEHE3:
	.cfi_endproc
.LFE9960:
	.section	.gcc_except_table._ZN7TMatrixC2Emm,"aG",@progbits,_ZN7TMatrixC5Emm,comdat
.LLSDA9960:
	.byte	0xff
	.byte	0xff
	.byte	0x1
	.uleb128 .LLSDACSE9960-.LLSDACSB9960
.LLSDACSB9960:
	.uleb128 .LEHB2-.LFB9960
	.uleb128 .LEHE2-.LEHB2
	.uleb128 .L248-.LFB9960
	.uleb128 0
	.uleb128 .LEHB3-.LFB9960
	.uleb128 .LEHE3-.LEHB3
	.uleb128 0
	.uleb128 0
.LLSDACSE9960:
	.section	.text._ZN7TMatrixC2Emm,"axG",@progbits,_ZN7TMatrixC5Emm,comdat
	.size	_ZN7TMatrixC2Emm, .-_ZN7TMatrixC2Emm
	.weak	_ZN7TMatrixC1Emm
	.set	_ZN7TMatrixC1Emm,_ZN7TMatrixC2Emm
	.section	.rodata._ZN7TMatrix20NoVectorizedMultiplyERKS_.str1.8,"aMS",@progbits,1
	.align 8
.LC3:
	.string	"Rows and columns of matrices are not equal!"
	.section	.rodata._ZN7TMatrix20NoVectorizedMultiplyERKS_.str1.1,"aMS",@progbits,1
.LC4:
	.string	"Processing "
.LC5:
	.string	" of "
.LC6:
	.string	"\n"
	.section	.text._ZN7TMatrix20NoVectorizedMultiplyERKS_,"axG",@progbits,_ZN7TMatrix20NoVectorizedMultiplyERKS_,comdat
	.align 2
	.p2align 4
	.weak	_ZN7TMatrix20NoVectorizedMultiplyERKS_
	.type	_ZN7TMatrix20NoVectorizedMultiplyERKS_, @function
_ZN7TMatrix20NoVectorizedMultiplyERKS_:
.LFB9962:
	.cfi_startproc
	.cfi_personality 0x9b,DW.ref.__gxx_personality_v0
	.cfi_lsda 0x1b,.LLSDA9962
	pushq	%r15
	.cfi_def_cfa_offset 16
	.cfi_offset 15, -16
	pushq	%r14
	.cfi_def_cfa_offset 24
	.cfi_offset 14, -24
	pushq	%r13
	.cfi_def_cfa_offset 32
	.cfi_offset 13, -32
	pushq	%r12
	.cfi_def_cfa_offset 40
	.cfi_offset 12, -40
	pushq	%rbp
	.cfi_def_cfa_offset 48
	.cfi_offset 6, -48
	pushq	%rbx
	.cfi_def_cfa_offset 56
	.cfi_offset 3, -56
	subq	$152, %rsp
	.cfi_def_cfa_offset 208
	movq	%fs:40, %rax
	movq	%rax, 136(%rsp)
	movq	8(%rdi), %rax
	cmpq	%rax, (%rsi)
	jne	.L314
	movq	%rsi, %rbp
	movq	%rdi, %rbx
	movl	$40, %edi
.LEHB4:
	call	_Znwm@PLT
.LEHE4:
	movq	8(%rbp), %rdx
	movq	(%rbx), %rsi
	movq	%rax, %rdi
	movq	%rax, %r14
.LEHB5:
	call	_ZN7TMatrixC1Emm
.LEHE5:
	leaq	112(%rsp), %r13
	leaq	104(%rsp), %r15
	movl	$12, %esi
	movq	%r15, %rdx
	movq	%r13, %rdi
	leaq	96(%rsp), %r12
.LEHB6:
	call	_ZNSt6vectorIS_IdSaIdEESaIS1_EEC1EmRKS2_
.LEHE6:
	movq	%r13, %rdi
	call	_ZNSt6vectorIS_IdSaIdEESaIS1_EE5beginEv
	movq	%r13, %rdi
	movq	%rax, 96(%rsp)
	call	_ZNSt6vectorIS_IdSaIdEESaIS1_EE3endEv
	movq	%rax, 104(%rsp)
	jmp	.L279
.L280:
	movq	96(%rsp), %rdi
	movl	$12, %esi
	call	_ZNK9__gnu_cxx17__normal_iteratorIPSt6vectorIdSaIdEES1_IS3_SaIS3_EEEdeEv.isra.0
	movq	%rax, %rdi
.LEHB7:
	call	_ZNSt6vectorIdSaIdEE6resizeEm
	movq	%r12, %rdi
	call	_ZN9__gnu_cxx17__normal_iteratorIPSt6vectorIdSaIdEES1_IS3_SaIS3_EEEppEv.isra.0
.L279:
	movq	%r15, %rsi
	movq	%r12, %rdi
	call	_ZN9__gnu_cxxneIPSt6vectorIdSaIdEES1_IS3_SaIS3_EEEEbRKNS_17__normal_iteratorIT_T0_EESC_
	testb	%al, %al
	jne	.L280
	xorl	%r12d, %r12d
	cmpq	$0, (%rbx)
	je	.L291
.L281:
	imull	$-1030792151, %r12d, %eax
	rorl	$2, %eax
	cmpl	$42949672, %eax
	jbe	.L315
.L282:
	movq	8(%rbp), %rdx
	testq	%rdx, %rdx
	je	.L283
	movq	0(%rbp), %rsi
	movq	112(%rsp), %r9
	testq	%rsi, %rsi
	je	.L283
	movq	16(%rbp), %rax
	movq	16(%rbx), %r10
	movq	%r14, %r15
	movq	%rbp, %r8
	xorl	%r11d, %r11d
	movq	%rbx, %r14
	movq	%rsi, %rbp
	movq	%rax, 56(%rsp)
.L290:
	movq	%r12, %rsi
	movq	%r10, %rdi
	xorl	%ebx, %ebx
	movq	%r14, %rcx
	call	_ZNSt6vectorIS_IS_IS_IdSaIdEESaIS1_EESaIS3_EESaIS5_EEixEm.isra.0
	movq	%r10, 64(%rsp)
	movq	(%rax), %rax
	movq	%r11, 24(%rsp)
	movq	%r8, %r11
	movq	%rax, 48(%rsp)
.L289:
	movq	56(%rsp), %rdi
	movq	%rbx, %rsi
	call	_ZNKSt6vectorIS_IS_IS_IdSaIdEESaIS1_EESaIS3_EESaIS5_EEixEm.isra.0
	movq	24(%rsp), %rsi
	movq	(%rax), %rdi
	call	_ZNKSt6vectorIS_IS_IdSaIdEESaIS1_EESaIS3_EEixEm.isra.0
	movq	48(%rsp), %rdi
	movq	%rbx, %rsi
	movq	%rax, %r8
	call	_ZNSt6vectorIS_IS_IdSaIdEESaIS1_EESaIS3_EEixEm.isra.0
	movq	(%r8), %r10
	movq	%rdx, 72(%rsp)
	xorl	%r8d, %r8d
	movq	%rbp, 80(%rsp)
	movq	(%rax), %r14
	movq	%r12, 88(%rsp)
	movq	%r10, 32(%rsp)
	movq	%rcx, %r10
.L284:
	movq	%r8, %rsi
	movq	%r14, %rdi
	xorl	%edx, %edx
	call	_ZNKSt6vectorIS_IdSaIdEESaIS1_EEixEm.isra.0
	movq	%r9, %rdi
	movq	(%rax), %r12
	call	_ZNSt6vectorIS_IdSaIdEESaIS1_EEixEm.isra.0
	movq	(%rax), %rcx
	.p2align 4,,10
	.p2align 3
.L288:
	movq	%rdx, %rsi
	movq	%rcx, %rdi
	xorl	%ebp, %ebp
	call	_ZNSt6vectorIdSaIdEEixEm.isra.0
	fldl	(%rax)
	movq	%rax, 40(%rsp)
	.p2align 4,,10
	.p2align 3
.L285:
	movq	%rbp, %rsi
	movq	%r12, %rdi
	fstpl	16(%rsp)
	addq	$1, %rbp
	call	_ZNKSt6vectorIdSaIdEEixEm.isra.0
	movq	32(%rsp), %rdi
	fldl	(%rax)
	fstpl	8(%rsp)
	call	_ZNKSt6vectorIS_IdSaIdEESaIS1_EEixEm.isra.0
	movq	%rdx, %rsi
	movq	(%rax), %rdi
	call	_ZNKSt6vectorIdSaIdEEixEm.isra.0
	fldl	8(%rsp)
	fmull	(%rax)
	fldl	16(%rsp)
	movq	40(%rsp), %rax
	faddp	%st, %st(1)
	fstl	(%rax)
	cmpq	$12, %rbp
	jne	.L285
	fstp	%st(0)
	addq	$1, %rdx
	cmpq	$12, %rdx
	jne	.L288
	addq	$1, %r8
	cmpq	$12, %r8
	jne	.L284
	movq	80(%rsp), %rbp
	addq	$1, %rbx
	movq	72(%rsp), %rdx
	movq	%r10, %rcx
	movq	88(%rsp), %r12
	cmpq	%rbx, %rbp
	jne	.L289
	movq	%r11, %r8
	movq	24(%rsp), %r11
	movq	%r10, %r14
	movq	64(%rsp), %r10
	addq	$1, %r11
	cmpq	%rdx, %r11
	jne	.L290
	movq	%rcx, %rbx
	movq	%r15, %r14
	movq	%r8, %rbp
.L283:
	addq	$1, %r12
	cmpq	(%rbx), %r12
	jb	.L281
.L291:
	movq	%r13, %rdi
	call	_ZNSt6vectorIS_IdSaIdEESaIS1_EED1Ev
	movq	136(%rsp), %rax
	subq	%fs:40, %rax
	jne	.L316
	addq	$152, %rsp
	.cfi_remember_state
	.cfi_def_cfa_offset 56
	movq	%r14, %rax
	popq	%rbx
	.cfi_def_cfa_offset 48
	popq	%rbp
	.cfi_def_cfa_offset 40
	popq	%r12
	.cfi_def_cfa_offset 32
	popq	%r13
	.cfi_def_cfa_offset 24
	popq	%r14
	.cfi_def_cfa_offset 16
	popq	%r15
	.cfi_def_cfa_offset 8
	ret
.L315:
	.cfi_restore_state
	leaq	.LC4(%rip), %rsi
	leaq	_ZSt4cout(%rip), %rdi
	call	_ZStlsISt11char_traitsIcEERSt13basic_ostreamIcT_ES5_PKc@PLT
	movq	%rax, %rdi
	movl	%r12d, %esi
	call	_ZNSolsEi@PLT
	movq	%rax, %rdi
	leaq	.LC5(%rip), %rsi
	call	_ZStlsISt11char_traitsIcEERSt13basic_ostreamIcT_ES5_PKc@PLT
	movq	(%rbx), %rsi
	movq	%rax, %rdi
	call	_ZNSolsEm@PLT
	movq	%rax, %rdi
	leaq	.LC6(%rip), %rsi
	call	_ZStlsISt11char_traitsIcEERSt13basic_ostreamIcT_ES5_PKc@PLT
.LEHE7:
	jmp	.L282
.L316:
	call	__stack_chk_fail@PLT
.L299:
	movq	%rax, %rbx
	jmp	.L294
.L298:
	movq	%rax, %rbx
	jmp	.L293
.L314:
	movl	$16, %edi
	call	__cxa_allocate_exception@PLT
	leaq	.LC3(%rip), %rsi
	movq	%rax, %rdi
	movq	%rax, %rbx
.LEHB8:
	call	_ZNSt12out_of_rangeC1EPKc@PLT
.LEHE8:
	movq	_ZNSt12out_of_rangeD1Ev@GOTPCREL(%rip), %rdx
	leaq	_ZTISt12out_of_range(%rip), %rsi
	movq	%rbx, %rdi
.LEHB9:
	call	__cxa_throw@PLT
.L294:
	movq	%r13, %rdi
	call	_ZNSt6vectorIS_IdSaIdEESaIS1_EED1Ev
	movq	%rbx, %rdi
	call	_Unwind_Resume@PLT
.L293:
	movq	%r14, %rdi
	movl	$40, %esi
	call	_ZdlPvm@PLT
	movq	%rbx, %rdi
	call	_Unwind_Resume@PLT
.L297:
	movq	%rax, %rbp
.L292:
	movq	%rbx, %rdi
	call	__cxa_free_exception@PLT
	movq	%rbp, %rdi
	call	_Unwind_Resume@PLT
.LEHE9:
	.cfi_endproc
.LFE9962:
	.section	.gcc_except_table._ZN7TMatrix20NoVectorizedMultiplyERKS_,"aG",@progbits,_ZN7TMatrix20NoVectorizedMultiplyERKS_,comdat
.LLSDA9962:
	.byte	0xff
	.byte	0xff
	.byte	0x1
	.uleb128 .LLSDACSE9962-.LLSDACSB9962
.LLSDACSB9962:
	.uleb128 .LEHB4-.LFB9962
	.uleb128 .LEHE4-.LEHB4
	.uleb128 0
	.uleb128 0
	.uleb128 .LEHB5-.LFB9962
	.uleb128 .LEHE5-.LEHB5
	.uleb128 .L298-.LFB9962
	.uleb128 0
	.uleb128 .LEHB6-.LFB9962
	.uleb128 .LEHE6-.LEHB6
	.uleb128 0
	.uleb128 0
	.uleb128 .LEHB7-.LFB9962
	.uleb128 .LEHE7-.LEHB7
	.uleb128 .L299-.LFB9962
	.uleb128 0
	.uleb128 .LEHB8-.LFB9962
	.uleb128 .LEHE8-.LEHB8
	.uleb128 .L297-.LFB9962
	.uleb128 0
	.uleb128 .LEHB9-.LFB9962
	.uleb128 .LEHE9-.LEHB9
	.uleb128 0
	.uleb128 0
.LLSDACSE9962:
	.section	.text._ZN7TMatrix20NoVectorizedMultiplyERKS_,"axG",@progbits,_ZN7TMatrix20NoVectorizedMultiplyERKS_,comdat
	.size	_ZN7TMatrix20NoVectorizedMultiplyERKS_, .-_ZN7TMatrix20NoVectorizedMultiplyERKS_
	.section	.text._ZN7TMatrix22AutoVectorizedMultiplyERKS_,"axG",@progbits,_ZN7TMatrix22AutoVectorizedMultiplyERKS_,comdat
	.align 2
	.p2align 4
	.weak	_ZN7TMatrix22AutoVectorizedMultiplyERKS_
	.type	_ZN7TMatrix22AutoVectorizedMultiplyERKS_, @function
_ZN7TMatrix22AutoVectorizedMultiplyERKS_:
.LFB9964:
	.cfi_startproc
	.cfi_personality 0x9b,DW.ref.__gxx_personality_v0
	.cfi_lsda 0x1b,.LLSDA9964
	pushq	%rbp
	.cfi_def_cfa_offset 16
	.cfi_offset 6, -16
	movq	%rsp, %rbp
	.cfi_def_cfa_register 6
	pushq	%r15
	pushq	%r14
	pushq	%r13
	pushq	%r12
	pushq	%rbx
	subq	$120, %rsp
	.cfi_offset 15, -24
	.cfi_offset 14, -32
	.cfi_offset 13, -40
	.cfi_offset 12, -48
	.cfi_offset 3, -56
	movq	%fs:40, %rax
	movq	%rax, 104(%rsp)
	movq	8(%rdi), %rax
	cmpq	%rax, (%rsi)
	jne	.L368
	movq	%rsi, %r13
	movq	%rdi, %r12
	movl	$40, %edi
.LEHB10:
	call	_Znwm@PLT
.LEHE10:
	movq	8(%r13), %rdx
	movq	(%r12), %rsi
	movq	%rax, %rdi
	movq	%rax, 48(%rsp)
.LEHB11:
	call	_ZN7TMatrixC1Emm
.LEHE11:
	movl	$288, %edi
.LEHB12:
	call	_Znwm@PLT
.LEHE12:
	vpxor	%xmm0, %xmm0, %xmm0
	movq	%rax, %rbx
	movq	%rax, 80(%rsp)
	leaq	288(%rax), %rax
	movq	%rax, 56(%rsp)
	movq	%rbx, %r14
	movq	%rax, 96(%rsp)
	movq	%rbx, %rax
.L319:
	vmovdqu	%ymm0, (%rax)
	addq	$96, %rax
	vmovdqu	%ymm0, -64(%rax)
	vmovdqu	%ymm0, -32(%rax)
	cmpq	%rax, 56(%rsp)
	jne	.L319
	movq	56(%rsp), %rax
	movl	$12, %r15d
	movq	%rax, 88(%rsp)
	vzeroupper
	jmp	.L323
.L320:
	cmpq	$96, %rdx
	jbe	.L321
	addq	$96, %rax
	cmpq	%rax, %rcx
	je	.L321
	movq	%rax, 8(%r14)
.L321:
	addq	$24, %r14
	cmpq	%r14, 56(%rsp)
	je	.L369
.L323:
	movq	8(%r14), %rcx
	movq	(%r14), %rax
	movq	%rcx, %rdx
	subq	%rax, %rdx
	cmpq	$88, %rdx
	ja	.L320
	sarq	$3, %rdx
	movq	%r15, %rsi
	movq	%r14, %rdi
	subq	%rdx, %rsi
.LEHB13:
	call	_ZNSt6vectorIdSaIdEE17_M_default_appendEm
	addq	$24, %r14
	cmpq	%r14, 56(%rsp)
	jne	.L323
.L369:
	xorl	%r14d, %r14d
	cmpq	$0, (%r12)
	je	.L337
.L324:
	imull	$-1030792151, %r14d, %eax
	rorl	$2, %eax
	cmpl	$42949672, %eax
	jbe	.L370
.L326:
	movq	8(%r13), %rax
	testq	%rax, %rax
	je	.L327
	movq	0(%r13), %rdx
	leaq	(%r14,%r14,2), %rcx
	leaq	(%rax,%rax,2), %rax
	xorl	%r8d, %r8d
	leaq	0(,%rcx,8), %rdi
	salq	$3, %rax
	leaq	(%rdx,%rdx,2), %rcx
	leaq	0(,%rcx,8), %r15
	testq	%rdx, %rdx
	je	.L363
	movq	16(%r13), %r11
	movq	16(%r12), %rcx
	movq	%r12, 40(%rsp)
.L335:
	movq	(%rcx,%rdi), %r9
	movq	%r13, 24(%rsp)
	xorl	%edx, %edx
	movq	%rax, %r10
	movq	%r14, 32(%rsp)
	movq	%rdi, %r14
	movq	%rcx, %rdi
	movq	%r9, %rcx
.L334:
	movq	(%rcx,%rdx), %r9
	movq	(%r11,%rdx), %rsi
	movq	%r8, 8(%rsp)
	movq	%rdx, (%rsp)
	movq	(%rsi,%r8), %r12
	movq	%r9, 64(%rsp)
	xorl	%esi, %esi
	movq	%rcx, 16(%rsp)
	movq	%r14, %rcx
	leaq	288(%r12), %r13
.L329:
	movq	64(%rsp), %rax
	movq	(%rbx,%rsi), %r8
	movq	(%rax,%rsi), %r14
	xorl	%eax, %eax
	.p2align 4,,10
	.p2align 3
.L333:
	movq	%rcx, 72(%rsp)
	vmovsd	(%r8,%rax), %xmm0
	movq	%r14, %r9
	movq	%r12, %rdx
	.p2align 4,,10
	.p2align 3
.L330:
	movq	(%rdx), %rcx
	addq	$24, %rdx
	addq	$8, %r9
	vmovsd	(%rcx,%rax), %xmm1
	vmulsd	-8(%r9), %xmm1, %xmm1
	vaddsd	%xmm1, %xmm0, %xmm0
	vmovsd	%xmm0, (%r8,%rax)
	cmpq	%r13, %rdx
	jne	.L330
	addq	$8, %rax
	movq	72(%rsp), %rcx
	cmpq	$96, %rax
	jne	.L333
	addq	$24, %rsi
	cmpq	$288, %rsi
	jne	.L329
	movq	(%rsp), %rdx
	movq	%rcx, %r14
	movq	8(%rsp), %r8
	movq	16(%rsp), %rcx
	addq	$24, %rdx
	cmpq	%rdx, %r15
	jne	.L334
	addq	$24, %r8
	movq	%rdi, %rcx
	movq	24(%rsp), %r13
	movq	%r14, %rdi
	movq	%r10, %rax
	movq	32(%rsp), %r14
	cmpq	%r8, %r10
	jne	.L335
	movq	40(%rsp), %r12
.L327:
	addq	$1, %r14
	cmpq	(%r12), %r14
	jb	.L324
.L337:
	movq	%rbx, %r12
.L325:
	movq	(%r12), %rdi
	testq	%rdi, %rdi
	je	.L338
	movq	16(%r12), %rsi
	subq	%rdi, %rsi
	call	_ZdlPvm@PLT
.L338:
	addq	$24, %r12
	cmpq	%r12, 56(%rsp)
	jne	.L325
	movl	$288, %esi
	movq	%rbx, %rdi
	call	_ZdlPvm@PLT
	movq	104(%rsp), %rax
	subq	%fs:40, %rax
	jne	.L371
	movq	48(%rsp), %rax
	addq	$120, %rsp
	popq	%rbx
	popq	%r12
	popq	%r13
	popq	%r14
	popq	%r15
	popq	%rbp
	.cfi_remember_state
	.cfi_def_cfa 7, 8
	ret
.L363:
	.cfi_restore_state
	addq	$24, %r8
	cmpq	%r8, %rax
	je	.L327
	addq	$24, %r8
	cmpq	%r8, %rax
	jne	.L363
	jmp	.L327
.L370:
	movl	$11, %edx
	leaq	.LC4(%rip), %rsi
	leaq	_ZSt4cout(%rip), %rdi
	call	_ZSt16__ostream_insertIcSt11char_traitsIcEERSt13basic_ostreamIT_T0_ES6_PKS3_l@PLT
	movl	%r14d, %esi
	leaq	_ZSt4cout(%rip), %rdi
	call	_ZNSolsEi@PLT
	movl	$4, %edx
	leaq	.LC5(%rip), %rsi
	movq	%rax, %rdi
	movq	%rax, %r15
	call	_ZSt16__ostream_insertIcSt11char_traitsIcEERSt13basic_ostreamIT_T0_ES6_PKS3_l@PLT
	movq	(%r12), %rsi
	movq	%r15, %rdi
	call	_ZNSo9_M_insertImEERSoT_@PLT
	movq	%rax, %rdi
	movl	$1, %edx
	leaq	.LC6(%rip), %rsi
	call	_ZSt16__ostream_insertIcSt11char_traitsIcEERSt13basic_ostreamIT_T0_ES6_PKS3_l@PLT
.LEHE13:
	jmp	.L326
.L371:
	call	__stack_chk_fail@PLT
.L347:
	movq	%rax, %rbx
	jmp	.L342
.L346:
	movq	%rax, %rbx
	jmp	.L341
.L368:
	movl	$16, %edi
	call	__cxa_allocate_exception@PLT
	leaq	.LC3(%rip), %rsi
	movq	%rax, %rdi
	movq	%rax, %rbx
.LEHB14:
	call	_ZNSt12out_of_rangeC1EPKc@PLT
.LEHE14:
	movq	_ZNSt12out_of_rangeD1Ev@GOTPCREL(%rip), %rdx
	leaq	_ZTISt12out_of_range(%rip), %rsi
	movq	%rbx, %rdi
.LEHB15:
	call	__cxa_throw@PLT
.L342:
	leaq	80(%rsp), %rdi
	vzeroupper
	call	_ZNSt6vectorIS_IdSaIdEESaIS1_EED1Ev
	movq	%rbx, %rdi
	call	_Unwind_Resume@PLT
.L341:
	movq	48(%rsp), %rdi
	movl	$40, %esi
	vzeroupper
	call	_ZdlPvm@PLT
	movq	%rbx, %rdi
	call	_Unwind_Resume@PLT
.L345:
	movq	%rax, %r12
.L340:
	movq	%rbx, %rdi
	vzeroupper
	call	__cxa_free_exception@PLT
	movq	%r12, %rdi
	call	_Unwind_Resume@PLT
.LEHE15:
	.cfi_endproc
.LFE9964:
	.section	.gcc_except_table._ZN7TMatrix22AutoVectorizedMultiplyERKS_,"aG",@progbits,_ZN7TMatrix22AutoVectorizedMultiplyERKS_,comdat
.LLSDA9964:
	.byte	0xff
	.byte	0xff
	.byte	0x1
	.uleb128 .LLSDACSE9964-.LLSDACSB9964
.LLSDACSB9964:
	.uleb128 .LEHB10-.LFB9964
	.uleb128 .LEHE10-.LEHB10
	.uleb128 0
	.uleb128 0
	.uleb128 .LEHB11-.LFB9964
	.uleb128 .LEHE11-.LEHB11
	.uleb128 .L346-.LFB9964
	.uleb128 0
	.uleb128 .LEHB12-.LFB9964
	.uleb128 .LEHE12-.LEHB12
	.uleb128 0
	.uleb128 0
	.uleb128 .LEHB13-.LFB9964
	.uleb128 .LEHE13-.LEHB13
	.uleb128 .L347-.LFB9964
	.uleb128 0
	.uleb128 .LEHB14-.LFB9964
	.uleb128 .LEHE14-.LEHB14
	.uleb128 .L345-.LFB9964
	.uleb128 0
	.uleb128 .LEHB15-.LFB9964
	.uleb128 .LEHE15-.LEHB15
	.uleb128 0
	.uleb128 0
.LLSDACSE9964:
	.section	.text._ZN7TMatrix22AutoVectorizedMultiplyERKS_,"axG",@progbits,_ZN7TMatrix22AutoVectorizedMultiplyERKS_,comdat
	.size	_ZN7TMatrix22AutoVectorizedMultiplyERKS_, .-_ZN7TMatrix22AutoVectorizedMultiplyERKS_
	.section	.text._ZN7TMatrix18VectorizedMultiplyERKS_,"axG",@progbits,_ZN7TMatrix18VectorizedMultiplyERKS_,comdat
	.align 2
	.p2align 4
	.weak	_ZN7TMatrix18VectorizedMultiplyERKS_
	.type	_ZN7TMatrix18VectorizedMultiplyERKS_, @function
_ZN7TMatrix18VectorizedMultiplyERKS_:
.LFB9966:
	.cfi_startproc
	.cfi_personality 0x9b,DW.ref.__gxx_personality_v0
	.cfi_lsda 0x1b,.LLSDA9966
	pushq	%rbp
	.cfi_def_cfa_offset 16
	.cfi_offset 6, -16
	movq	%rsp, %rbp
	.cfi_def_cfa_register 6
	pushq	%r15
	pushq	%r14
	pushq	%r13
	pushq	%r12
	pushq	%rbx
	andq	$-32, %rsp
	subq	$96, %rsp
	.cfi_offset 15, -24
	.cfi_offset 14, -32
	.cfi_offset 13, -40
	.cfi_offset 12, -48
	.cfi_offset 3, -56
	movq	%fs:40, %rax
	movq	%rax, 88(%rsp)
	movq	8(%rdi), %rax
	cmpq	%rax, (%rsi)
	jne	.L419
	movq	%rsi, %r12
	movq	%rdi, %r13
	movl	$40, %edi
.LEHB16:
	call	_Znwm@PLT
.LEHE16:
	movq	8(%r12), %rdx
	movq	0(%r13), %rsi
	movq	%rax, %rdi
	movq	%rax, 40(%rsp)
.LEHB17:
	call	_ZN7TMatrixC1Emm
.LEHE17:
	movl	$288, %edi
.LEHB18:
	call	_Znwm@PLT
.LEHE18:
	vpxor	%xmm0, %xmm0, %xmm0
	movq	%rax, %rbx
	movq	%rax, 64(%rsp)
	leaq	288(%rax), %rax
	movq	%rax, 56(%rsp)
	movq	%rbx, %r14
	movq	%rax, 80(%rsp)
	movq	%rbx, %rax
.L374:
	vmovdqu	%ymm0, (%rax)
	addq	$96, %rax
	vmovdqu	%ymm0, -64(%rax)
	vmovdqu	%ymm0, -32(%rax)
	cmpq	%rax, 56(%rsp)
	jne	.L374
	movq	56(%rsp), %rax
	movl	$12, %r15d
	movq	%rax, 72(%rsp)
	jmp	.L378
.L375:
	cmpq	$96, %rdx
	jbe	.L376
	addq	$96, %rax
	cmpq	%rax, %rcx
	je	.L376
	movq	%rax, 8(%r14)
.L376:
	addq	$24, %r14
	cmpq	%r14, 56(%rsp)
	je	.L420
.L378:
	movq	8(%r14), %rcx
	movq	(%r14), %rax
	movq	%rcx, %rdx
	subq	%rax, %rdx
	cmpq	$88, %rdx
	ja	.L375
	sarq	$3, %rdx
	movq	%r15, %rsi
	movq	%r14, %rdi
	subq	%rdx, %rsi
	vzeroupper
.LEHB19:
	call	_ZNSt6vectorIdSaIdEE17_M_default_appendEm
	addq	$24, %r14
	cmpq	%r14, 56(%rsp)
	jne	.L378
.L420:
	xorl	%r15d, %r15d
	cmpq	$0, 0(%r13)
	je	.L391
.L379:
	imull	$-1030792151, %r15d, %eax
	movl	%r15d, 48(%rsp)
	rorl	$2, %eax
	cmpl	$42949672, %eax
	jbe	.L421
.L381:
	cmpq	$0, 8(%r12)
	je	.L382
	leaq	(%r15,%r15,2), %rax
	xorl	%esi, %esi
	xorl	%ecx, %ecx
	leaq	0(,%rax,8), %rdi
	movq	%rdi, %rax
	movq	%rsi, %rdi
	movq	%rax, %rsi
.L383:
	xorl	%eax, %eax
	xorl	%edx, %edx
	cmpq	$0, (%r12)
	je	.L390
	movq	%r15, 32(%rsp)
	movq	%rcx, 48(%rsp)
	movq	%rdi, 24(%rsp)
.L389:
	movq	16(%r12), %r9
	movq	48(%rsp), %r15
	xorl	%r11d, %r11d
	addq	(%r9,%rax), %r15
	movq	16(%r13), %r9
	movq	(%r9,%rsi), %r14
	addq	%rax, %r14
	.p2align 4,,10
	.p2align 3
.L384:
	xorl	%r9d, %r9d
.L388:
	movq	(%r14), %rcx
	vxorpd	%xmm1, %xmm1, %xmm1
	movq	(%rcx,%r11), %rdi
	movq	(%r15), %rcx
	leaq	288(%rcx), %r10
	.p2align 4,,10
	.p2align 3
.L385:
	movq	(%rcx), %r8
	vbroadcastsd	(%rdi), %ymm0
	addq	$24, %rcx
	addq	$8, %rdi
	vmulpd	(%r8,%r9), %ymm0, %ymm0
	vaddpd	%ymm0, %ymm1, %ymm1
	cmpq	%rcx, %r10
	jne	.L385
	movq	(%rbx,%r11), %rcx
	vmovupd	%ymm1, (%rcx,%r9)
	cmpq	$64, %r9
	je	.L386
	movl	$64, %r9d
	jmp	.L388
	.p2align 4,,10
	.p2align 3
.L386:
	addq	$24, %r11
	cmpq	$288, %r11
	jne	.L384
	addq	$1, %rdx
	addq	$24, %rax
	cmpq	(%r12), %rdx
	jb	.L389
	movq	32(%rsp), %r15
	movq	48(%rsp), %rcx
	movq	24(%rsp), %rdi
.L390:
	addq	$1, %rdi
	addq	$24, %rcx
	cmpq	8(%r12), %rdi
	jb	.L383
.L382:
	addq	$1, %r15
	cmpq	0(%r13), %r15
	jb	.L379
.L391:
	movq	%rbx, %r12
	vzeroupper
.L380:
	movq	(%r12), %rdi
	testq	%rdi, %rdi
	je	.L392
	movq	16(%r12), %rsi
	subq	%rdi, %rsi
	call	_ZdlPvm@PLT
.L392:
	addq	$24, %r12
	cmpq	%r12, 56(%rsp)
	jne	.L380
	movl	$288, %esi
	movq	%rbx, %rdi
	call	_ZdlPvm@PLT
	movq	88(%rsp), %rax
	subq	%fs:40, %rax
	jne	.L422
	movq	40(%rsp), %rax
	leaq	-40(%rbp), %rsp
	popq	%rbx
	popq	%r12
	popq	%r13
	popq	%r14
	popq	%r15
	popq	%rbp
	.cfi_remember_state
	.cfi_def_cfa 7, 8
	ret
.L421:
	.cfi_restore_state
	leaq	_ZSt4cout(%rip), %r14
	movl	$11, %edx
	leaq	.LC4(%rip), %rsi
	movq	%r14, %rdi
	vzeroupper
	call	_ZSt16__ostream_insertIcSt11char_traitsIcEERSt13basic_ostreamIT_T0_ES6_PKS3_l@PLT
	movl	48(%rsp), %esi
	movq	%r14, %rdi
	call	_ZNSolsEi@PLT
	movl	$4, %edx
	leaq	.LC5(%rip), %rsi
	movq	%rax, %rdi
	movq	%rax, %r14
	call	_ZSt16__ostream_insertIcSt11char_traitsIcEERSt13basic_ostreamIT_T0_ES6_PKS3_l@PLT
	movq	0(%r13), %rsi
	movq	%r14, %rdi
	call	_ZNSo9_M_insertImEERSoT_@PLT
	movq	%rax, %rdi
	movl	$1, %edx
	leaq	.LC6(%rip), %rsi
	call	_ZSt16__ostream_insertIcSt11char_traitsIcEERSt13basic_ostreamIT_T0_ES6_PKS3_l@PLT
.LEHE19:
	jmp	.L381
.L422:
	call	__stack_chk_fail@PLT
.L402:
	movq	%rax, %rbx
	jmp	.L396
.L401:
	movq	%rax, %rbx
	jmp	.L395
.L419:
	movl	$16, %edi
	call	__cxa_allocate_exception@PLT
	leaq	.LC3(%rip), %rsi
	movq	%rax, %rdi
	movq	%rax, %rbx
.LEHB20:
	call	_ZNSt12out_of_rangeC1EPKc@PLT
.LEHE20:
	movq	_ZNSt12out_of_rangeD1Ev@GOTPCREL(%rip), %rdx
	leaq	_ZTISt12out_of_range(%rip), %rsi
	movq	%rbx, %rdi
.LEHB21:
	call	__cxa_throw@PLT
.L396:
	leaq	64(%rsp), %rdi
	vzeroupper
	call	_ZNSt6vectorIS_IdSaIdEESaIS1_EED1Ev
	movq	%rbx, %rdi
	call	_Unwind_Resume@PLT
.L395:
	movq	40(%rsp), %rdi
	movl	$40, %esi
	vzeroupper
	call	_ZdlPvm@PLT
	movq	%rbx, %rdi
	call	_Unwind_Resume@PLT
.L400:
	movq	%rax, %r12
.L394:
	movq	%rbx, %rdi
	vzeroupper
	call	__cxa_free_exception@PLT
	movq	%r12, %rdi
	call	_Unwind_Resume@PLT
.LEHE21:
	.cfi_endproc
.LFE9966:
	.section	.gcc_except_table._ZN7TMatrix18VectorizedMultiplyERKS_,"aG",@progbits,_ZN7TMatrix18VectorizedMultiplyERKS_,comdat
.LLSDA9966:
	.byte	0xff
	.byte	0xff
	.byte	0x1
	.uleb128 .LLSDACSE9966-.LLSDACSB9966
.LLSDACSB9966:
	.uleb128 .LEHB16-.LFB9966
	.uleb128 .LEHE16-.LEHB16
	.uleb128 0
	.uleb128 0
	.uleb128 .LEHB17-.LFB9966
	.uleb128 .LEHE17-.LEHB17
	.uleb128 .L401-.LFB9966
	.uleb128 0
	.uleb128 .LEHB18-.LFB9966
	.uleb128 .LEHE18-.LEHB18
	.uleb128 0
	.uleb128 0
	.uleb128 .LEHB19-.LFB9966
	.uleb128 .LEHE19-.LEHB19
	.uleb128 .L402-.LFB9966
	.uleb128 0
	.uleb128 .LEHB20-.LFB9966
	.uleb128 .LEHE20-.LEHB20
	.uleb128 .L400-.LFB9966
	.uleb128 0
	.uleb128 .LEHB21-.LFB9966
	.uleb128 .LEHE21-.LEHB21
	.uleb128 0
	.uleb128 0
.LLSDACSE9966:
	.section	.text._ZN7TMatrix18VectorizedMultiplyERKS_,"axG",@progbits,_ZN7TMatrix18VectorizedMultiplyERKS_,comdat
	.size	_ZN7TMatrix18VectorizedMultiplyERKS_, .-_ZN7TMatrix18VectorizedMultiplyERKS_
	.section	.text._ZNSt23mersenne_twister_engineImLm32ELm624ELm397ELm31ELm2567483615ELm11ELm4294967295ELm7ELm2636928640ELm15ELm4022730752ELm18ELm1812433253EE11_M_gen_randEv,"axG",@progbits,_ZNSt23mersenne_twister_engineImLm32ELm624ELm397ELm31ELm2567483615ELm11ELm4294967295ELm7ELm2636928640ELm15ELm4022730752ELm18ELm1812433253EE11_M_gen_randEv,comdat
	.align 2
	.p2align 4
	.weak	_ZNSt23mersenne_twister_engineImLm32ELm624ELm397ELm31ELm2567483615ELm11ELm4294967295ELm7ELm2636928640ELm15ELm4022730752ELm18ELm1812433253EE11_M_gen_randEv
	.type	_ZNSt23mersenne_twister_engineImLm32ELm624ELm397ELm31ELm2567483615ELm11ELm4294967295ELm7ELm2636928640ELm15ELm4022730752ELm18ELm1812433253EE11_M_gen_randEv, @function
_ZNSt23mersenne_twister_engineImLm32ELm624ELm397ELm31ELm2567483615ELm11ELm4294967295ELm7ELm2636928640ELm15ELm4022730752ELm18ELm1812433253EE11_M_gen_randEv:
.LFB10926:
	.cfi_startproc
	movq	%rdi, %r9
	movq	(%rdi), %rsi
	movl	$2567483615, %r8d
	leaq	1816(%rdi), %rdi
	movq	%r9, %rax
	.p2align 4,,10
	.p2align 3
.L425:
	andq	$-2147483648, %rsi
	movq	%rsi, %rdx
	movq	8(%rax), %rsi
	movq	%rsi, %rcx
	andl	$2147483647, %ecx
	orq	%rdx, %rcx
	movq	%rcx, %rdx
	shrq	%rdx
	xorq	3176(%rax), %rdx
	andl	$1, %ecx
	je	.L424
	xorq	%r8, %rdx
.L424:
	movq	%rdx, (%rax)
	addq	$8, %rax
	cmpq	%rdi, %rax
	jne	.L425
	movl	$2567483615, %ecx
	leaq	4984(%r9), %rdx
	vpbroadcastq	.LC12(%rip), %ymm5
	vpbroadcastq	.LC13(%rip), %ymm4
	vmovq	%rcx, %xmm6
	vpxor	%xmm7, %xmm7, %xmm7
	vpbroadcastq	.LC14(%rip), %ymm3
	vpbroadcastq	%xmm6, %ymm6
	.p2align 4,,10
	.p2align 3
.L426:
	vpand	8(%rax), %ymm4, %ymm1
	vpand	(%rax), %ymm5, %ymm0
	addq	$32, %rax
	vpor	%ymm1, %ymm0, %ymm0
	vpsrlq	$1, %ymm0, %ymm1
	vpand	%ymm3, %ymm0, %ymm0
	vpxor	-1848(%rax), %ymm1, %ymm1
	vpcmpeqq	%ymm7, %ymm0, %ymm0
	vpxor	%ymm6, %ymm1, %ymm2
	vpblendvb	%ymm0, %ymm1, %ymm2, %ymm0
	vmovdqu	%ymm0, -32(%rax)
	cmpq	%rax, %rdx
	jne	.L426
	movq	4984(%r9), %rdx
	movq	(%r9), %rax
	movq	$0, 4992(%r9)
	andl	$2147483647, %eax
	andq	$-2147483648, %rdx
	orq	%rax, %rdx
	movq	%rdx, %rax
	shrq	%rax
	xorq	3168(%r9), %rax
	xorq	%rax, %rcx
	andl	$1, %edx
	cmovne	%rcx, %rax
	movq	%rax, 4984(%r9)
	vzeroupper
	ret
	.cfi_endproc
.LFE10926:
	.size	_ZNSt23mersenne_twister_engineImLm32ELm624ELm397ELm31ELm2567483615ELm11ELm4294967295ELm7ELm2636928640ELm15ELm4022730752ELm18ELm1812433253EE11_M_gen_randEv, .-_ZNSt23mersenne_twister_engineImLm32ELm624ELm397ELm31ELm2567483615ELm11ELm4294967295ELm7ELm2636928640ELm15ELm4022730752ELm18ELm1812433253EE11_M_gen_randEv
	.section	.text._ZNSt23mersenne_twister_engineImLm32ELm624ELm397ELm31ELm2567483615ELm11ELm4294967295ELm7ELm2636928640ELm15ELm4022730752ELm18ELm1812433253EEclEv,"axG",@progbits,_ZNSt23mersenne_twister_engineImLm32ELm624ELm397ELm31ELm2567483615ELm11ELm4294967295ELm7ELm2636928640ELm15ELm4022730752ELm18ELm1812433253EEclEv,comdat
	.align 2
	.p2align 4
	.weak	_ZNSt23mersenne_twister_engineImLm32ELm624ELm397ELm31ELm2567483615ELm11ELm4294967295ELm7ELm2636928640ELm15ELm4022730752ELm18ELm1812433253EEclEv
	.type	_ZNSt23mersenne_twister_engineImLm32ELm624ELm397ELm31ELm2567483615ELm11ELm4294967295ELm7ELm2636928640ELm15ELm4022730752ELm18ELm1812433253EEclEv, @function
_ZNSt23mersenne_twister_engineImLm32ELm624ELm397ELm31ELm2567483615ELm11ELm4294967295ELm7ELm2636928640ELm15ELm4022730752ELm18ELm1812433253EEclEv:
.LFB10816:
	.cfi_startproc
	movq	4992(%rdi), %rax
	pushq	%rbx
	.cfi_def_cfa_offset 16
	.cfi_offset 3, -16
	movq	%rdi, %rbx
	cmpq	$623, %rax
	ja	.L438
.L436:
	leaq	1(%rax), %rdx
	movq	(%rbx,%rax,8), %rax
	movq	%rdx, 4992(%rbx)
	popq	%rbx
	.cfi_remember_state
	.cfi_def_cfa_offset 8
	movq	%rax, %rdx
	shrq	$11, %rdx
	movl	%edx, %edx
	xorq	%rax, %rdx
	movq	%rdx, %rax
	salq	$7, %rax
	andl	$2636928640, %eax
	xorq	%rdx, %rax
	movq	%rax, %rdx
	salq	$15, %rdx
	andl	$4022730752, %edx
	xorq	%rax, %rdx
	movq	%rdx, %rax
	shrq	$18, %rax
	xorq	%rdx, %rax
	ret
	.p2align 4,,10
	.p2align 3
.L438:
	.cfi_restore_state
	call	_ZNSt23mersenne_twister_engineImLm32ELm624ELm397ELm31ELm2567483615ELm11ELm4294967295ELm7ELm2636928640ELm15ELm4022730752ELm18ELm1812433253EE11_M_gen_randEv
	movq	4992(%rbx), %rax
	jmp	.L436
	.cfi_endproc
.LFE10816:
	.size	_ZNSt23mersenne_twister_engineImLm32ELm624ELm397ELm31ELm2567483615ELm11ELm4294967295ELm7ELm2636928640ELm15ELm4022730752ELm18ELm1812433253EEclEv, .-_ZNSt23mersenne_twister_engineImLm32ELm624ELm397ELm31ELm2567483615ELm11ELm4294967295ELm7ELm2636928640ELm15ELm4022730752ELm18ELm1812433253EEclEv
	.section	.text._ZNSt24uniform_int_distributionIiEclISt23mersenne_twister_engineImLm32ELm624ELm397ELm31ELm2567483615ELm11ELm4294967295ELm7ELm2636928640ELm15ELm4022730752ELm18ELm1812433253EEEEiRT_RKNS0_10param_typeE.isra.0,"axG",@progbits,_ZN7TMatrix10FillRandomEv,comdat
	.align 2
	.p2align 4
	.type	_ZNSt24uniform_int_distributionIiEclISt23mersenne_twister_engineImLm32ELm624ELm397ELm31ELm2567483615ELm11ELm4294967295ELm7ELm2636928640ELm15ELm4022730752ELm18ELm1812433253EEEEiRT_RKNS0_10param_typeE.isra.0, @function
_ZNSt24uniform_int_distributionIiEclISt23mersenne_twister_engineImLm32ELm624ELm397ELm31ELm2567483615ELm11ELm4294967295ELm7ELm2636928640ELm15ELm4022730752ELm18ELm1812433253EEEEiRT_RKNS0_10param_typeE.isra.0:
.LFB11202:
	.cfi_startproc
	pushq	%r14
	.cfi_def_cfa_offset 16
	.cfi_offset 14, -16
	movslq	%esi, %rax
	pushq	%r13
	.cfi_def_cfa_offset 24
	.cfi_offset 13, -24
	pushq	%r12
	.cfi_def_cfa_offset 32
	.cfi_offset 12, -32
	movslq	%edx, %r12
	movq	%r12, %r13
	pushq	%rbp
	.cfi_def_cfa_offset 40
	.cfi_offset 6, -40
	movq	%rdi, %rbp
	pushq	%rbx
	.cfi_def_cfa_offset 48
	.cfi_offset 3, -48
	subq	%rax, %r13
	movq	%rax, %rbx
	movl	$4294967294, %eax
	cmpq	%r13, %rax
	jnb	.L451
	movl	$4294967295, %eax
	cmpq	%rax, %r13
	je	.L444
.L449:
	movl	$-1, %edx
	xorl	%esi, %esi
	movq	%rbp, %rdi
	call	_ZNSt24uniform_int_distributionIiEclISt23mersenne_twister_engineImLm32ELm624ELm397ELm31ELm2567483615ELm11ELm4294967295ELm7ELm2636928640ELm15ELm4022730752ELm18ELm1812433253EEEEiRT_RKNS0_10param_typeE.isra.0
	movq	%rbp, %rdi
	movl	%eax, %r12d
	call	_ZNSt23mersenne_twister_engineImLm32ELm624ELm397ELm31ELm2567483615ELm11ELm4294967295ELm7ELm2636928640ELm15ELm4022730752ELm18ELm1812433253EEclEv
	movq	%rax, %rdx
	movq	%r12, %rax
	salq	$32, %rax
	addq	%rdx, %rax
	setc	%dl
	movzbl	%dl, %edx
	cmpq	%rax, %r13
	jb	.L449
	testq	%rdx, %rdx
	jne	.L449
	addl	%ebx, %eax
	popq	%rbx
	.cfi_remember_state
	.cfi_def_cfa_offset 40
	popq	%rbp
	.cfi_def_cfa_offset 32
	popq	%r12
	.cfi_def_cfa_offset 24
	popq	%r13
	.cfi_def_cfa_offset 16
	popq	%r14
	.cfi_def_cfa_offset 8
	ret
	.p2align 4,,10
	.p2align 3
.L451:
	.cfi_restore_state
	call	_ZNSt23mersenne_twister_engineImLm32ELm624ELm397ELm31ELm2567483615ELm11ELm4294967295ELm7ELm2636928640ELm15ELm4022730752ELm18ELm1812433253EEclEv
	leaq	1(%r13), %r12
	imulq	%r12, %rax
	movq	%rax, %rcx
	cmpl	%r12d, %eax
	jnb	.L441
	movl	%r12d, %eax
	xorl	%edx, %edx
	negl	%eax
	divl	%r12d
	movl	%edx, %r13d
	cmpl	%edx, %ecx
	jnb	.L441
	.p2align 4,,10
	.p2align 3
.L442:
	movq	%rbp, %rdi
	call	_ZNSt23mersenne_twister_engineImLm32ELm624ELm397ELm31ELm2567483615ELm11ELm4294967295ELm7ELm2636928640ELm15ELm4022730752ELm18ELm1812433253EEclEv
	imulq	%r12, %rax
	movq	%rax, %rcx
	cmpl	%r13d, %eax
	jb	.L442
.L441:
	movq	%rcx, %rax
	shrq	$32, %rax
	addl	%ebx, %eax
	popq	%rbx
	.cfi_remember_state
	.cfi_def_cfa_offset 40
	popq	%rbp
	.cfi_def_cfa_offset 32
	popq	%r12
	.cfi_def_cfa_offset 24
	popq	%r13
	.cfi_def_cfa_offset 16
	popq	%r14
	.cfi_def_cfa_offset 8
	ret
	.p2align 4,,10
	.p2align 3
.L444:
	.cfi_restore_state
	call	_ZNSt23mersenne_twister_engineImLm32ELm624ELm397ELm31ELm2567483615ELm11ELm4294967295ELm7ELm2636928640ELm15ELm4022730752ELm18ELm1812433253EEclEv
	addl	%ebx, %eax
	popq	%rbx
	.cfi_def_cfa_offset 40
	popq	%rbp
	.cfi_def_cfa_offset 32
	popq	%r12
	.cfi_def_cfa_offset 24
	popq	%r13
	.cfi_def_cfa_offset 16
	popq	%r14
	.cfi_def_cfa_offset 8
	ret
	.cfi_endproc
.LFE11202:
	.size	_ZNSt24uniform_int_distributionIiEclISt23mersenne_twister_engineImLm32ELm624ELm397ELm31ELm2567483615ELm11ELm4294967295ELm7ELm2636928640ELm15ELm4022730752ELm18ELm1812433253EEEEiRT_RKNS0_10param_typeE.isra.0, .-_ZNSt24uniform_int_distributionIiEclISt23mersenne_twister_engineImLm32ELm624ELm397ELm31ELm2567483615ELm11ELm4294967295ELm7ELm2636928640ELm15ELm4022730752ELm18ELm1812433253EEEEiRT_RKNS0_10param_typeE.isra.0
	.section	.text._ZN7TMatrix10FillRandomEv,"axG",@progbits,_ZN7TMatrix10FillRandomEv,comdat
	.align 2
	.p2align 4
	.weak	_ZN7TMatrix10FillRandomEv
	.type	_ZN7TMatrix10FillRandomEv, @function
_ZN7TMatrix10FillRandomEv:
.LFB9972:
	.cfi_startproc
	cmpq	$0, (%rdi)
	je	.L470
	pushq	%r15
	.cfi_def_cfa_offset 16
	.cfi_offset 15, -16
	xorl	%r15d, %r15d
	pushq	%r14
	.cfi_def_cfa_offset 24
	.cfi_offset 14, -24
	movq	%rdi, %r14
	pushq	%r13
	.cfi_def_cfa_offset 32
	.cfi_offset 13, -32
	pushq	%r12
	.cfi_def_cfa_offset 40
	.cfi_offset 12, -40
	pushq	%rbp
	.cfi_def_cfa_offset 48
	.cfi_offset 6, -48
	pushq	%rbx
	.cfi_def_cfa_offset 56
	.cfi_offset 3, -56
	subq	$24, %rsp
	.cfi_def_cfa_offset 80
.L453:
	cmpq	$0, 8(%r14)
	je	.L460
	movl	distribution(%rip), %eax
	movq	16(%r14), %rdx
	xorl	%r12d, %r12d
	movl	%eax, 8(%rsp)
	movl	4+distribution(%rip), %eax
	movl	%eax, 12(%rsp)
	leaq	(%r15,%r15,2), %rax
	leaq	(%rdx,%rax,8), %rax
	movq	(%rax), %r13
.L458:
	xorl	%ebx, %ebx
	.p2align 4,,10
	.p2align 3
.L455:
	xorl	%ebp, %ebp
	.p2align 4,,10
	.p2align 3
.L456:
	movl	12(%rsp), %edx
	movl	8(%rsp), %esi
	leaq	gen(%rip), %rdi
	call	_ZNSt24uniform_int_distributionIiEclISt23mersenne_twister_engineImLm32ELm624ELm397ELm31ELm2567483615ELm11ELm4294967295ELm7ELm2636928640ELm15ELm4022730752ELm18ELm1812433253EEEEiRT_RKNS0_10param_typeE.isra.0
	vxorps	%xmm1, %xmm1, %xmm1
	movl	%eax, %edx
	movq	0(%r13), %rax
	vcvtsi2sdl	%edx, %xmm1, %xmm0
	movq	(%rax,%rbx), %rax
	vmovsd	%xmm0, (%rax,%rbp)
	addq	$8, %rbp
	cmpq	$96, %rbp
	jne	.L456
	addq	$24, %rbx
	cmpq	$288, %rbx
	jne	.L455
	addq	$1, %r12
	addq	$24, %r13
	cmpq	8(%r14), %r12
	jb	.L458
.L460:
	addq	$1, %r15
	cmpq	(%r14), %r15
	jb	.L453
	addq	$24, %rsp
	.cfi_def_cfa_offset 56
	popq	%rbx
	.cfi_def_cfa_offset 48
	popq	%rbp
	.cfi_def_cfa_offset 40
	popq	%r12
	.cfi_def_cfa_offset 32
	popq	%r13
	.cfi_def_cfa_offset 24
	popq	%r14
	.cfi_def_cfa_offset 16
	popq	%r15
	.cfi_def_cfa_offset 8
	ret
.L470:
	.cfi_restore 3
	.cfi_restore 6
	.cfi_restore 12
	.cfi_restore 13
	.cfi_restore 14
	.cfi_restore 15
	ret
	.cfi_endproc
.LFE9972:
	.size	_ZN7TMatrix10FillRandomEv, .-_ZN7TMatrix10FillRandomEv
	.section	.rodata.str1.1,"aMS",@progbits,1
.LC15:
	.string	"Auto vectorization:\n"
.LC16:
	.string	"Time : "
.LC17:
	.string	" ms\n"
.LC18:
	.string	"T3: "
.LC19:
	.string	" "
.LC20:
	.string	"\n\n"
.LC21:
	.string	"Vectorization:\n"
.LC22:
	.string	"No vectorization:\n"
.LC23:
	.string	"All matrices are equal.\n"
.LC24:
	.string	"Matrices are not equal.\n"
	.section	.text.unlikely,"ax",@progbits
.LCOLDB25:
	.section	.text.startup,"ax",@progbits
.LHOTB25:
	.p2align 4
	.globl	main
	.type	main, @function
main:
.LFB9975:
	.cfi_startproc
	.cfi_personality 0x9b,DW.ref.__gxx_personality_v0
	.cfi_lsda 0x1b,.LLSDA9975
	pushq	%r15
	.cfi_def_cfa_offset 16
	.cfi_offset 15, -16
	movl	$100, %edx
	movl	$100, %esi
	pushq	%r14
	.cfi_def_cfa_offset 24
	.cfi_offset 14, -24
	pushq	%r13
	.cfi_def_cfa_offset 32
	.cfi_offset 13, -32
	pushq	%r12
	.cfi_def_cfa_offset 40
	.cfi_offset 12, -40
	pushq	%rbp
	.cfi_def_cfa_offset 48
	.cfi_offset 6, -48
	pushq	%rbx
	.cfi_def_cfa_offset 56
	.cfi_offset 3, -56
	subq	$120, %rsp
	.cfi_def_cfa_offset 176
	movq	%fs:40, %rax
	movq	%rax, 104(%rsp)
	xorl	%eax, %eax
	leaq	16(%rsp), %r13
	leaq	64(%rsp), %r14
	movq	%r13, %rdi
.LEHB22:
	call	_ZN7TMatrixC1Emm
.LEHE22:
	movl	$100, %edx
	movl	$100, %esi
	movq	%r14, %rdi
.LEHB23:
	call	_ZN7TMatrixC1Emm
.LEHE23:
	movq	%r13, %rdi
	leaq	_ZSt4cout(%rip), %rbx
	call	_ZN7TMatrix10FillRandomEv
	movq	%r14, %rdi
	call	_ZN7TMatrix10FillRandomEv
	leaq	.LC15(%rip), %rsi
	movq	%rbx, %rdi
.LEHB24:
	call	_ZStlsISt11char_traitsIcEERSt13basic_ostreamIcT_ES5_PKc@PLT
	call	_ZNSt6chrono3_V212system_clock3nowEv@PLT
	movq	%r14, %rsi
	movq	%r13, %rdi
	movq	%rax, %r12
	call	_ZN7TMatrix22AutoVectorizedMultiplyERKS_
	movq	%rax, %rbp
	leaq	.LC16(%rip), %r15
	call	_ZNSt6chrono3_V212system_clock3nowEv@PLT
	movq	%r15, %rsi
	movq	%rbx, %rdi
	movabsq	$4835703278458516699, %rdx
	subq	%r12, %rax
	movq	%rax, %rcx
	imulq	%rdx
	sarq	$63, %rcx
	sarq	$18, %rdx
	subq	%rcx, %rdx
	movq	%rdx, %r12
	call	_ZStlsISt11char_traitsIcEERSt13basic_ostreamIcT_ES5_PKc@PLT
	movq	%rax, %rdi
	movq	%r12, %rsi
	call	_ZNSo9_M_insertIlEERSoT_@PLT
	movq	%rax, %rdi
	leaq	.LC17(%rip), %rsi
	call	_ZStlsISt11char_traitsIcEERSt13basic_ostreamIcT_ES5_PKc@PLT
	leaq	.LC18(%rip), %rsi
	movq	%rbx, %rdi
	call	_ZStlsISt11char_traitsIcEERSt13basic_ostreamIcT_ES5_PKc@PLT
	movq	0(%rbp), %rsi
	movq	%rax, %rdi
	call	_ZNSo9_M_insertImEERSoT_@PLT
	movq	%rax, %rdi
	leaq	.LC19(%rip), %rsi
	call	_ZStlsISt11char_traitsIcEERSt13basic_ostreamIcT_ES5_PKc@PLT
	movq	8(%rbp), %rsi
	movq	%rax, %rdi
	call	_ZNSo9_M_insertImEERSoT_@PLT
	movq	%rax, %rdi
	leaq	.LC20(%rip), %rsi
	call	_ZStlsISt11char_traitsIcEERSt13basic_ostreamIcT_ES5_PKc@PLT
	leaq	.LC21(%rip), %rsi
	movq	%rbx, %rdi
	call	_ZStlsISt11char_traitsIcEERSt13basic_ostreamIcT_ES5_PKc@PLT
	call	_ZNSt6chrono3_V212system_clock3nowEv@PLT
	movq	%r14, %rsi
	movq	%r13, %rdi
	movq	%rax, 8(%rsp)
	call	_ZN7TMatrix18VectorizedMultiplyERKS_
	movq	%rax, %r12
	call	_ZNSt6chrono3_V212system_clock3nowEv@PLT
	movq	%r15, %rsi
	movq	%rbx, %rdi
	movq	%rax, %rcx
	movq	8(%rsp), %rax
	subq	%rax, %rcx
	movabsq	$4835703278458516699, %rax
	imulq	%rcx
	sarq	$63, %rcx
	sarq	$18, %rdx
	subq	%rcx, %rdx
	movq	%rdx, 8(%rsp)
	call	_ZStlsISt11char_traitsIcEERSt13basic_ostreamIcT_ES5_PKc@PLT
	movq	8(%rsp), %rsi
	movq	%rax, %rdi
	call	_ZNSo9_M_insertIlEERSoT_@PLT
	movq	%rax, %rdi
	leaq	.LC17(%rip), %rsi
	call	_ZStlsISt11char_traitsIcEERSt13basic_ostreamIcT_ES5_PKc@PLT
	leaq	.LC18(%rip), %rsi
	movq	%rbx, %rdi
	call	_ZStlsISt11char_traitsIcEERSt13basic_ostreamIcT_ES5_PKc@PLT
	movq	(%r12), %rsi
	movq	%rax, %rdi
	call	_ZNSo9_M_insertImEERSoT_@PLT
	movq	%rax, %rdi
	leaq	.LC19(%rip), %rsi
	call	_ZStlsISt11char_traitsIcEERSt13basic_ostreamIcT_ES5_PKc@PLT
	movq	8(%r12), %rsi
	movq	%rax, %rdi
	call	_ZNSo9_M_insertImEERSoT_@PLT
	movq	%rax, %rdi
	leaq	.LC20(%rip), %rsi
	call	_ZStlsISt11char_traitsIcEERSt13basic_ostreamIcT_ES5_PKc@PLT
	leaq	.LC22(%rip), %rsi
	movq	%rbx, %rdi
	call	_ZStlsISt11char_traitsIcEERSt13basic_ostreamIcT_ES5_PKc@PLT
	call	_ZNSt6chrono3_V212system_clock3nowEv@PLT
	movq	%r14, %rsi
	movq	%r13, %rdi
	movq	%rax, 8(%rsp)
	call	_ZN7TMatrix20NoVectorizedMultiplyERKS_
	movq	%rax, %r13
	call	_ZNSt6chrono3_V212system_clock3nowEv@PLT
	movq	%r15, %rsi
	movq	%rbx, %rdi
	movq	%rax, %rcx
	movq	8(%rsp), %rax
	subq	%rax, %rcx
	movabsq	$4835703278458516699, %rax
	imulq	%rcx
	sarq	$63, %rcx
	sarq	$18, %rdx
	subq	%rcx, %rdx
	movq	%rdx, %r14
	call	_ZStlsISt11char_traitsIcEERSt13basic_ostreamIcT_ES5_PKc@PLT
	movq	%rax, %rdi
	movq	%r14, %rsi
	call	_ZNSo9_M_insertIlEERSoT_@PLT
	movq	%rax, %rdi
	leaq	.LC17(%rip), %rsi
	call	_ZStlsISt11char_traitsIcEERSt13basic_ostreamIcT_ES5_PKc@PLT
	leaq	.LC18(%rip), %rsi
	movq	%rbx, %rdi
	call	_ZStlsISt11char_traitsIcEERSt13basic_ostreamIcT_ES5_PKc@PLT
	movq	0(%r13), %rsi
	movq	%rax, %rdi
	call	_ZNSo9_M_insertImEERSoT_@PLT
	movq	%rax, %rdi
	leaq	.LC19(%rip), %rsi
	call	_ZStlsISt11char_traitsIcEERSt13basic_ostreamIcT_ES5_PKc@PLT
	movq	8(%r13), %rsi
	movq	%rax, %rdi
	call	_ZNSo9_M_insertImEERSoT_@PLT
	movq	%rax, %rdi
	leaq	.LC20(%rip), %rsi
	call	_ZStlsISt11char_traitsIcEERSt13basic_ostreamIcT_ES5_PKc@PLT
	movq	%r13, %rsi
	movq	%rbp, %rdi
	call	_ZNK7TMatrixeqERKS_
	testb	%al, %al
	je	.L472
	movq	%r12, %rsi
	movq	%rbp, %rdi
	call	_ZNK7TMatrixeqERKS_
	testb	%al, %al
	jne	.L490
.L472:
	leaq	.LC24(%rip), %rsi
	movq	%rbx, %rdi
	call	_ZStlsISt11char_traitsIcEERSt13basic_ostreamIcT_ES5_PKc@PLT
.L473:
	leaq	16(%rbp), %rdi
	call	_ZNSt6vectorIS_IS_IS_IdSaIdEESaIS1_EESaIS3_EESaIS5_EED1Ev
	movl	$40, %esi
	movq	%rbp, %rdi
	call	_ZdlPvm@PLT
	leaq	16(%r13), %rdi
	call	_ZNSt6vectorIS_IS_IS_IdSaIdEESaIS1_EESaIS3_EESaIS5_EED1Ev
	movl	$40, %esi
	movq	%r13, %rdi
	call	_ZdlPvm@PLT
	leaq	16(%r12), %rdi
	call	_ZNSt6vectorIS_IS_IS_IdSaIdEESaIS1_EESaIS3_EESaIS5_EED1Ev
	movl	$40, %esi
	movq	%r12, %rdi
	call	_ZdlPvm@PLT
	leaq	80(%rsp), %rdi
	call	_ZNSt6vectorIS_IS_IS_IdSaIdEESaIS1_EESaIS3_EESaIS5_EED1Ev
	leaq	32(%rsp), %rdi
	call	_ZNSt6vectorIS_IS_IS_IdSaIdEESaIS1_EESaIS3_EESaIS5_EED1Ev
	movq	104(%rsp), %rax
	subq	%fs:40, %rax
	jne	.L491
	addq	$120, %rsp
	.cfi_remember_state
	.cfi_def_cfa_offset 56
	xorl	%eax, %eax
	popq	%rbx
	.cfi_def_cfa_offset 48
	popq	%rbp
	.cfi_def_cfa_offset 40
	popq	%r12
	.cfi_def_cfa_offset 32
	popq	%r13
	.cfi_def_cfa_offset 24
	popq	%r14
	.cfi_def_cfa_offset 16
	popq	%r15
	.cfi_def_cfa_offset 8
	ret
.L490:
	.cfi_restore_state
	movq	%r12, %rsi
	movq	%r13, %rdi
	call	_ZNK7TMatrixeqERKS_
	testb	%al, %al
	je	.L472
	leaq	.LC23(%rip), %rsi
	movq	%rbx, %rdi
	call	_ZStlsISt11char_traitsIcEERSt13basic_ostreamIcT_ES5_PKc@PLT
.LEHE24:
	jmp	.L473
.L491:
	call	__stack_chk_fail@PLT
.L478:
	movq	%rax, %rbx
	jmp	.L474
.L477:
	movq	%rax, %rbx
	vzeroupper
	jmp	.L475
	.section	.gcc_except_table,"a",@progbits
.LLSDA9975:
	.byte	0xff
	.byte	0xff
	.byte	0x1
	.uleb128 .LLSDACSE9975-.LLSDACSB9975
.LLSDACSB9975:
	.uleb128 .LEHB22-.LFB9975
	.uleb128 .LEHE22-.LEHB22
	.uleb128 0
	.uleb128 0
	.uleb128 .LEHB23-.LFB9975
	.uleb128 .LEHE23-.LEHB23
	.uleb128 .L477-.LFB9975
	.uleb128 0
	.uleb128 .LEHB24-.LFB9975
	.uleb128 .LEHE24-.LEHB24
	.uleb128 .L478-.LFB9975
	.uleb128 0
.LLSDACSE9975:
	.section	.text.startup
	.cfi_endproc
	.section	.text.unlikely
	.cfi_startproc
	.cfi_personality 0x9b,DW.ref.__gxx_personality_v0
	.cfi_lsda 0x1b,.LLSDAC9975
	.type	main.cold, @function
main.cold:
.LFSB9975:
.L474:
	.cfi_def_cfa_offset 176
	.cfi_offset 3, -56
	.cfi_offset 6, -48
	.cfi_offset 12, -40
	.cfi_offset 13, -32
	.cfi_offset 14, -24
	.cfi_offset 15, -16
	leaq	80(%rsp), %rdi
	vzeroupper
	call	_ZNSt6vectorIS_IS_IS_IdSaIdEESaIS1_EESaIS3_EESaIS5_EED1Ev
.L475:
	leaq	32(%rsp), %rdi
	call	_ZNSt6vectorIS_IS_IS_IdSaIdEESaIS1_EESaIS3_EESaIS5_EED1Ev
	movq	%rbx, %rdi
.LEHB25:
	call	_Unwind_Resume@PLT
.LEHE25:
	.cfi_endproc
.LFE9975:
	.section	.gcc_except_table
.LLSDAC9975:
	.byte	0xff
	.byte	0xff
	.byte	0x1
	.uleb128 .LLSDACSEC9975-.LLSDACSBC9975
.LLSDACSBC9975:
	.uleb128 .LEHB25-.LCOLDB25
	.uleb128 .LEHE25-.LEHB25
	.uleb128 0
	.uleb128 0
.LLSDACSEC9975:
	.section	.text.unlikely
	.section	.text.startup
	.size	main, .-main
	.section	.text.unlikely
	.size	main.cold, .-main.cold
.LCOLDE25:
	.section	.text.startup
.LHOTE25:
	.p2align 4
	.type	_GLOBAL__sub_I_randomDevice, @function
_GLOBAL__sub_I_randomDevice:
.LFB11166:
	.cfi_startproc
	pushq	%rbp
	.cfi_def_cfa_offset 16
	.cfi_offset 6, -16
	leaq	__dso_handle(%rip), %rbp
	pushq	%rbx
	.cfi_def_cfa_offset 24
	.cfi_offset 3, -24
	leaq	_ZStL8__ioinit(%rip), %rbx
	movq	%rbx, %rdi
	subq	$8, %rsp
	.cfi_def_cfa_offset 32
	call	_ZNSt8ios_base4InitC1Ev@PLT
	movq	_ZNSt8ios_base4InitD1Ev@GOTPCREL(%rip), %rdi
	movq	%rbx, %rsi
	movq	%rbp, %rdx
	leaq	randomDevice(%rip), %rbx
	call	__cxa_atexit@PLT
	movq	%rbx, %rdi
	call	_ZNSt13random_deviceC1Ev
	movq	%rbp, %rdx
	movq	%rbx, %rsi
	leaq	_ZNSt13random_deviceD1Ev(%rip), %rdi
	call	__cxa_atexit@PLT
	movq	%rbx, %rdi
	call	_ZNSt13random_device9_M_getvalEv@PLT
	movl	$1, %edx
	leaq	gen(%rip), %rsi
	movl	%eax, %ecx
	movq	%rcx, gen(%rip)
	.p2align 4,,10
	.p2align 3
.L493:
	movq	%rcx, %rax
	shrq	$30, %rax
	xorq	%rcx, %rax
	imulq	$1812433253, %rax, %rax
	leal	(%rdx,%rax), %ecx
	movq	%rcx, (%rsi,%rdx,8)
	addq	$1, %rdx
	cmpq	$624, %rdx
	jne	.L493
	movq	.LC26(%rip), %rax
	movq	$624, 4992+gen(%rip)
	movq	%rax, distribution(%rip)
	addq	$8, %rsp
	.cfi_def_cfa_offset 24
	popq	%rbx
	.cfi_def_cfa_offset 16
	popq	%rbp
	.cfi_def_cfa_offset 8
	ret
	.cfi_endproc
.LFE11166:
	.size	_GLOBAL__sub_I_randomDevice, .-_GLOBAL__sub_I_randomDevice
	.section	.init_array,"aw"
	.align 8
	.quad	_GLOBAL__sub_I_randomDevice
	.globl	distribution
	.bss
	.align 8
	.type	distribution, @object
	.size	distribution, 8
distribution:
	.zero	8
	.globl	gen
	.align 32
	.type	gen, @object
	.size	gen, 5000
gen:
	.zero	5000
	.globl	randomDevice
	.align 32
	.type	randomDevice, @object
	.size	randomDevice, 5000
randomDevice:
	.zero	5000
	.local	_ZStL8__ioinit
	.comm	_ZStL8__ioinit,1,1
	.section	.rodata.cst8,"aM",@progbits,8
	.align 8
.LC12:
	.quad	-2147483648
	.align 8
.LC13:
	.quad	2147483647
	.align 8
.LC14:
	.quad	1
	.align 8
.LC26:
	.long	0
	.long	100
	.hidden	DW.ref.__gxx_personality_v0
	.weak	DW.ref.__gxx_personality_v0
	.section	.data.rel.local.DW.ref.__gxx_personality_v0,"awG",@progbits,DW.ref.__gxx_personality_v0,comdat
	.align 8
	.type	DW.ref.__gxx_personality_v0, @object
	.size	DW.ref.__gxx_personality_v0, 8
DW.ref.__gxx_personality_v0:
	.quad	__gxx_personality_v0
	.hidden	__dso_handle
	.ident	"GCC: (GNU) 12.2.1 20230111"
	.section	.note.GNU-stack,"",@progbits
